ARM GAS  C:\Users\iborg\AppData\Local\Temp\ccx5Vb50.s 			page 1


   1              		.syntax unified
   2              		.cpu cortex-m0
   3              		.fpu softvfp
   4              		.eabi_attribute 20, 1
   5              		.eabi_attribute 21, 1
   6              		.eabi_attribute 23, 3
   7              		.eabi_attribute 24, 1
   8              		.eabi_attribute 25, 1
   9              		.eabi_attribute 26, 1
  10              		.eabi_attribute 30, 1
  11              		.eabi_attribute 34, 0
  12              		.eabi_attribute 18, 4
  13              		.thumb
  14              		.syntax unified
  15              		.file	"LCD_Seg_1_PM.c"
  16              		.text
  17              	.Ltext0:
  18              		.cfi_sections	.debug_frame
  19              		.section	.text.LCD_Seg_1_SaveConfig,"ax",%progbits
  20              		.align	2
  21              		.global	LCD_Seg_1_SaveConfig
  22              		.code	16
  23              		.thumb_func
  24              		.type	LCD_Seg_1_SaveConfig, %function
  25              	LCD_Seg_1_SaveConfig:
  26              	.LFB0:
  27              		.file 1 "Generated_Source\\PSoC4\\LCD_Seg_1_PM.c"
   1:Generated_Source\PSoC4/LCD_Seg_1_PM.c **** /*******************************************************************************
   2:Generated_Source\PSoC4/LCD_Seg_1_PM.c **** * File Name: LCD_Seg_1_PM.c
   3:Generated_Source\PSoC4/LCD_Seg_1_PM.c **** * Version 1.30
   4:Generated_Source\PSoC4/LCD_Seg_1_PM.c **** *
   5:Generated_Source\PSoC4/LCD_Seg_1_PM.c **** * Description:
   6:Generated_Source\PSoC4/LCD_Seg_1_PM.c **** *  This file provides the API source code for Power Management of the Segment
   7:Generated_Source\PSoC4/LCD_Seg_1_PM.c **** *  LCD component.
   8:Generated_Source\PSoC4/LCD_Seg_1_PM.c **** *
   9:Generated_Source\PSoC4/LCD_Seg_1_PM.c **** * Note:
  10:Generated_Source\PSoC4/LCD_Seg_1_PM.c **** *  None
  11:Generated_Source\PSoC4/LCD_Seg_1_PM.c **** *
  12:Generated_Source\PSoC4/LCD_Seg_1_PM.c **** ********************************************************************************
  13:Generated_Source\PSoC4/LCD_Seg_1_PM.c **** * Copyright 2013-2015, Cypress Semiconductor Corporation.  All rights reserved.
  14:Generated_Source\PSoC4/LCD_Seg_1_PM.c **** * You may use this file only in accordance with the license, terms, conditions,
  15:Generated_Source\PSoC4/LCD_Seg_1_PM.c **** * disclaimers, and limitations in the end user license agreement accompanying
  16:Generated_Source\PSoC4/LCD_Seg_1_PM.c **** * the software package with which this file was provided.
  17:Generated_Source\PSoC4/LCD_Seg_1_PM.c **** *******************************************************************************/
  18:Generated_Source\PSoC4/LCD_Seg_1_PM.c **** 
  19:Generated_Source\PSoC4/LCD_Seg_1_PM.c **** #include "LCD_Seg_1.h"
  20:Generated_Source\PSoC4/LCD_Seg_1_PM.c **** 
  21:Generated_Source\PSoC4/LCD_Seg_1_PM.c **** 
  22:Generated_Source\PSoC4/LCD_Seg_1_PM.c **** /*******************************************************************************
  23:Generated_Source\PSoC4/LCD_Seg_1_PM.c **** * Function Name: LCD_Seg_1_SaveConfig
  24:Generated_Source\PSoC4/LCD_Seg_1_PM.c **** ********************************************************************************
  25:Generated_Source\PSoC4/LCD_Seg_1_PM.c **** *
  26:Generated_Source\PSoC4/LCD_Seg_1_PM.c **** * Summary:
  27:Generated_Source\PSoC4/LCD_Seg_1_PM.c **** *  Saves user data. This API is called by LCD_Seg_1_Sleep() function.
  28:Generated_Source\PSoC4/LCD_Seg_1_PM.c **** *
  29:Generated_Source\PSoC4/LCD_Seg_1_PM.c **** * Parameters:
  30:Generated_Source\PSoC4/LCD_Seg_1_PM.c **** *  None.
ARM GAS  C:\Users\iborg\AppData\Local\Temp\ccx5Vb50.s 			page 2


  31:Generated_Source\PSoC4/LCD_Seg_1_PM.c **** *
  32:Generated_Source\PSoC4/LCD_Seg_1_PM.c **** * Return:
  33:Generated_Source\PSoC4/LCD_Seg_1_PM.c **** *  None.
  34:Generated_Source\PSoC4/LCD_Seg_1_PM.c **** *
  35:Generated_Source\PSoC4/LCD_Seg_1_PM.c **** *******************************************************************************/
  36:Generated_Source\PSoC4/LCD_Seg_1_PM.c **** void LCD_Seg_1_SaveConfig(void)
  37:Generated_Source\PSoC4/LCD_Seg_1_PM.c **** {
  28              		.loc 1 37 0
  29              		.cfi_startproc
  30              		@ args = 0, pretend = 0, frame = 0
  31              		@ frame_needed = 0, uses_anonymous_args = 0
  32              		@ link register save eliminated.
  38:Generated_Source\PSoC4/LCD_Seg_1_PM.c ****     /* Nothing to save for current version of the component */
  39:Generated_Source\PSoC4/LCD_Seg_1_PM.c **** }
  33              		.loc 1 39 0
  34              		@ sp needed
  35 0000 7047     		bx	lr
  36              		.cfi_endproc
  37              	.LFE0:
  38              		.size	LCD_Seg_1_SaveConfig, .-LCD_Seg_1_SaveConfig
  39 0002 C046     		.section	.text.LCD_Seg_1_RestoreConfig,"ax",%progbits
  40              		.align	2
  41              		.global	LCD_Seg_1_RestoreConfig
  42              		.code	16
  43              		.thumb_func
  44              		.type	LCD_Seg_1_RestoreConfig, %function
  45              	LCD_Seg_1_RestoreConfig:
  46              	.LFB1:
  40:Generated_Source\PSoC4/LCD_Seg_1_PM.c **** 
  41:Generated_Source\PSoC4/LCD_Seg_1_PM.c **** 
  42:Generated_Source\PSoC4/LCD_Seg_1_PM.c **** /*******************************************************************************
  43:Generated_Source\PSoC4/LCD_Seg_1_PM.c **** * Function Name: LCD_Seg_1_RestoreConfig
  44:Generated_Source\PSoC4/LCD_Seg_1_PM.c **** ********************************************************************************
  45:Generated_Source\PSoC4/LCD_Seg_1_PM.c **** *
  46:Generated_Source\PSoC4/LCD_Seg_1_PM.c **** * Summary:
  47:Generated_Source\PSoC4/LCD_Seg_1_PM.c **** *  Restores user data. This API is called by LCD_Seg_1_Wakeup() function.
  48:Generated_Source\PSoC4/LCD_Seg_1_PM.c **** *
  49:Generated_Source\PSoC4/LCD_Seg_1_PM.c **** * Parameters:
  50:Generated_Source\PSoC4/LCD_Seg_1_PM.c **** *  None.
  51:Generated_Source\PSoC4/LCD_Seg_1_PM.c **** *
  52:Generated_Source\PSoC4/LCD_Seg_1_PM.c **** * Return:
  53:Generated_Source\PSoC4/LCD_Seg_1_PM.c **** *  None.
  54:Generated_Source\PSoC4/LCD_Seg_1_PM.c **** *
  55:Generated_Source\PSoC4/LCD_Seg_1_PM.c **** *******************************************************************************/
  56:Generated_Source\PSoC4/LCD_Seg_1_PM.c **** void LCD_Seg_1_RestoreConfig(void)
  57:Generated_Source\PSoC4/LCD_Seg_1_PM.c **** {
  47              		.loc 1 57 0
  48              		.cfi_startproc
  49              		@ args = 0, pretend = 0, frame = 0
  50              		@ frame_needed = 0, uses_anonymous_args = 0
  51              		@ link register save eliminated.
  58:Generated_Source\PSoC4/LCD_Seg_1_PM.c ****     /* Nothing to restore for current version of the component */
  59:Generated_Source\PSoC4/LCD_Seg_1_PM.c **** }
  52              		.loc 1 59 0
  53              		@ sp needed
  54 0000 7047     		bx	lr
  55              		.cfi_endproc
ARM GAS  C:\Users\iborg\AppData\Local\Temp\ccx5Vb50.s 			page 3


  56              	.LFE1:
  57              		.size	LCD_Seg_1_RestoreConfig, .-LCD_Seg_1_RestoreConfig
  58 0002 C046     		.section	.text.LCD_Seg_1_Sleep,"ax",%progbits
  59              		.align	2
  60              		.global	LCD_Seg_1_Sleep
  61              		.code	16
  62              		.thumb_func
  63              		.type	LCD_Seg_1_Sleep, %function
  64              	LCD_Seg_1_Sleep:
  65              	.LFB2:
  60:Generated_Source\PSoC4/LCD_Seg_1_PM.c **** 
  61:Generated_Source\PSoC4/LCD_Seg_1_PM.c **** 
  62:Generated_Source\PSoC4/LCD_Seg_1_PM.c **** /*******************************************************************************
  63:Generated_Source\PSoC4/LCD_Seg_1_PM.c **** * Function Name: LCD_Seg_1_Sleep
  64:Generated_Source\PSoC4/LCD_Seg_1_PM.c **** ********************************************************************************
  65:Generated_Source\PSoC4/LCD_Seg_1_PM.c **** *
  66:Generated_Source\PSoC4/LCD_Seg_1_PM.c **** * Summary:
  67:Generated_Source\PSoC4/LCD_Seg_1_PM.c **** *  Prepares the component to enter Sleep mode.
  68:Generated_Source\PSoC4/LCD_Seg_1_PM.c **** *
  69:Generated_Source\PSoC4/LCD_Seg_1_PM.c **** * Parameters:
  70:Generated_Source\PSoC4/LCD_Seg_1_PM.c **** *  None.
  71:Generated_Source\PSoC4/LCD_Seg_1_PM.c **** *
  72:Generated_Source\PSoC4/LCD_Seg_1_PM.c **** * Return:
  73:Generated_Source\PSoC4/LCD_Seg_1_PM.c **** *  None.
  74:Generated_Source\PSoC4/LCD_Seg_1_PM.c **** *
  75:Generated_Source\PSoC4/LCD_Seg_1_PM.c **** *******************************************************************************/
  76:Generated_Source\PSoC4/LCD_Seg_1_PM.c **** void LCD_Seg_1_Sleep(void)
  77:Generated_Source\PSoC4/LCD_Seg_1_PM.c **** {
  66              		.loc 1 77 0
  67              		.cfi_startproc
  68              		@ args = 0, pretend = 0, frame = 0
  69              		@ frame_needed = 0, uses_anonymous_args = 0
  70              		@ link register save eliminated.
  78:Generated_Source\PSoC4/LCD_Seg_1_PM.c ****     LCD_Seg_1_SaveConfig();
  79:Generated_Source\PSoC4/LCD_Seg_1_PM.c **** }
  71              		.loc 1 79 0
  72              		@ sp needed
  73 0000 7047     		bx	lr
  74              		.cfi_endproc
  75              	.LFE2:
  76              		.size	LCD_Seg_1_Sleep, .-LCD_Seg_1_Sleep
  77 0002 C046     		.section	.text.LCD_Seg_1_Wakeup,"ax",%progbits
  78              		.align	2
  79              		.global	LCD_Seg_1_Wakeup
  80              		.code	16
  81              		.thumb_func
  82              		.type	LCD_Seg_1_Wakeup, %function
  83              	LCD_Seg_1_Wakeup:
  84              	.LFB3:
  80:Generated_Source\PSoC4/LCD_Seg_1_PM.c **** 
  81:Generated_Source\PSoC4/LCD_Seg_1_PM.c **** 
  82:Generated_Source\PSoC4/LCD_Seg_1_PM.c **** /*******************************************************************************
  83:Generated_Source\PSoC4/LCD_Seg_1_PM.c **** * Function Name: LCD_Seg_1_Wakeup
  84:Generated_Source\PSoC4/LCD_Seg_1_PM.c **** ********************************************************************************
  85:Generated_Source\PSoC4/LCD_Seg_1_PM.c **** *
  86:Generated_Source\PSoC4/LCD_Seg_1_PM.c **** * Summary:
  87:Generated_Source\PSoC4/LCD_Seg_1_PM.c **** *  Restores component after exiting Sleep mode.
ARM GAS  C:\Users\iborg\AppData\Local\Temp\ccx5Vb50.s 			page 4


  88:Generated_Source\PSoC4/LCD_Seg_1_PM.c **** *
  89:Generated_Source\PSoC4/LCD_Seg_1_PM.c **** * Parameters:
  90:Generated_Source\PSoC4/LCD_Seg_1_PM.c **** *  None.
  91:Generated_Source\PSoC4/LCD_Seg_1_PM.c **** *
  92:Generated_Source\PSoC4/LCD_Seg_1_PM.c **** * Return:
  93:Generated_Source\PSoC4/LCD_Seg_1_PM.c **** *  None.
  94:Generated_Source\PSoC4/LCD_Seg_1_PM.c **** *
  95:Generated_Source\PSoC4/LCD_Seg_1_PM.c **** *******************************************************************************/
  96:Generated_Source\PSoC4/LCD_Seg_1_PM.c **** void LCD_Seg_1_Wakeup(void)
  97:Generated_Source\PSoC4/LCD_Seg_1_PM.c **** {
  85              		.loc 1 97 0
  86              		.cfi_startproc
  87              		@ args = 0, pretend = 0, frame = 0
  88              		@ frame_needed = 0, uses_anonymous_args = 0
  89              		@ link register save eliminated.
  98:Generated_Source\PSoC4/LCD_Seg_1_PM.c ****     LCD_Seg_1_RestoreConfig();
  99:Generated_Source\PSoC4/LCD_Seg_1_PM.c **** }
  90              		.loc 1 99 0
  91              		@ sp needed
  92 0000 7047     		bx	lr
  93              		.cfi_endproc
  94              	.LFE3:
  95              		.size	LCD_Seg_1_Wakeup, .-LCD_Seg_1_Wakeup
  96 0002 C046     		.text
  97              	.Letext0: