ARM GAS  C:\Users\iborg\AppData\Local\Temp\ccRvSWiO.s 			page 1


   1              		.syntax unified
   2              		.cpu cortex-m0
   3              		.fpu softvfp
   4              		.eabi_attribute 20, 1
   5              		.eabi_attribute 21, 1
   6              		.eabi_attribute 23, 3
   7              		.eabi_attribute 24, 1
   8              		.eabi_attribute 25, 1
   9              		.eabi_attribute 26, 1
  10              		.eabi_attribute 30, 1
  11              		.eabi_attribute 34, 0
  12              		.eabi_attribute 18, 4
  13              		.thumb
  14              		.syntax unified
  15              		.file	"LCD_Seg_1.c"
  16              		.text
  17              	.Ltext0:
  18              		.cfi_sections	.debug_frame
  19              		.section	.text.LCD_Seg_1_WriteFrameBuffer,"ax",%progbits
  20              		.align	2
  21              		.code	16
  22              		.thumb_func
  23              		.type	LCD_Seg_1_WriteFrameBuffer, %function
  24              	LCD_Seg_1_WriteFrameBuffer:
  25              	.LFB0:
  26              		.file 1 "Generated_Source\\PSoC4\\LCD_Seg_1.c"
   1:Generated_Source\PSoC4/LCD_Seg_1.c **** /*******************************************************************************
   2:Generated_Source\PSoC4/LCD_Seg_1.c **** * File Name: LCD_Seg_1.c
   3:Generated_Source\PSoC4/LCD_Seg_1.c **** * Version 1.30
   4:Generated_Source\PSoC4/LCD_Seg_1.c **** *
   5:Generated_Source\PSoC4/LCD_Seg_1.c **** * Description:
   6:Generated_Source\PSoC4/LCD_Seg_1.c **** *  This file provides the source code to the API for the Segment LCD component.
   7:Generated_Source\PSoC4/LCD_Seg_1.c **** *
   8:Generated_Source\PSoC4/LCD_Seg_1.c **** * Note:
   9:Generated_Source\PSoC4/LCD_Seg_1.c **** *  None
  10:Generated_Source\PSoC4/LCD_Seg_1.c **** *
  11:Generated_Source\PSoC4/LCD_Seg_1.c **** ********************************************************************************
  12:Generated_Source\PSoC4/LCD_Seg_1.c **** * Copyright 2013-2015, Cypress Semiconductor Corporation.  All rights reserved.
  13:Generated_Source\PSoC4/LCD_Seg_1.c **** * You may use this file only in accordance with the license, terms, conditions,
  14:Generated_Source\PSoC4/LCD_Seg_1.c **** * disclaimers, and limitations in the end user license agreement accompanying
  15:Generated_Source\PSoC4/LCD_Seg_1.c **** * the software package with which this file was provided.
  16:Generated_Source\PSoC4/LCD_Seg_1.c **** *******************************************************************************/
  17:Generated_Source\PSoC4/LCD_Seg_1.c **** 
  18:Generated_Source\PSoC4/LCD_Seg_1.c **** #include "LCD_Seg_1.h"
  19:Generated_Source\PSoC4/LCD_Seg_1.c **** 
  20:Generated_Source\PSoC4/LCD_Seg_1.c **** static void LCD_Seg_1_WriteFrameBuffer(reg32 regAddr[], uint32 bitNumber, uint32 state);
  21:Generated_Source\PSoC4/LCD_Seg_1.c **** static uint32 LCD_Seg_1_ReadFrameBuffer(const reg32 regAddr[], uint32 bitNumber);
  22:Generated_Source\PSoC4/LCD_Seg_1.c **** 
  23:Generated_Source\PSoC4/LCD_Seg_1.c **** /* This section contains look-up tables for different kinds of displays. */
  24:Generated_Source\PSoC4/LCD_Seg_1.c **** #ifdef LCD_Seg_1_7SEG
  25:Generated_Source\PSoC4/LCD_Seg_1.c ****     static const uint8 LCD_Seg_1_7SegDigits[] = {
  26:Generated_Source\PSoC4/LCD_Seg_1.c ****       /*  '0'    '1'    '2'    '3'    '4'    '5'    '6'    '7' */
  27:Generated_Source\PSoC4/LCD_Seg_1.c ****         0x3fu, 0x06u, 0x5bu, 0x4fu, 0x66u, 0x6du, 0x7du, 0x07u,
  28:Generated_Source\PSoC4/LCD_Seg_1.c ****       /*  '8'    '9'    'A'    'B'    'C'    'D'    'E'    'F'   null */
  29:Generated_Source\PSoC4/LCD_Seg_1.c ****         0x7fu, 0x6fu, 0x77u, 0x7cu, 0x39u, 0x5eu, 0x79u, 0x71u, 0x00u};
  30:Generated_Source\PSoC4/LCD_Seg_1.c **** #endif /* LCD_Seg_1_7SEG */
  31:Generated_Source\PSoC4/LCD_Seg_1.c **** 
ARM GAS  C:\Users\iborg\AppData\Local\Temp\ccRvSWiO.s 			page 2


  32:Generated_Source\PSoC4/LCD_Seg_1.c **** #ifdef LCD_Seg_1_14SEG
  33:Generated_Source\PSoC4/LCD_Seg_1.c ****     static const uint16 LCD_Seg_1_14SegChars[] = {
  34:Generated_Source\PSoC4/LCD_Seg_1.c ****     /*------------------------------------------------------------*/
  35:Generated_Source\PSoC4/LCD_Seg_1.c ****     /*                           Blank                            */
  36:Generated_Source\PSoC4/LCD_Seg_1.c ****     /*------------------------------------------------------------*/
  37:Generated_Source\PSoC4/LCD_Seg_1.c ****     0x0000u,0x0000u,0x0000u,0x0000u,0x0000u,0x0000u,0x0000u,0x0000u,
  38:Generated_Source\PSoC4/LCD_Seg_1.c ****     0x0000u,0x0000u,0x0000u,0x0000u,0x0000u,0x0000u,0x0000u,0x0000u,
  39:Generated_Source\PSoC4/LCD_Seg_1.c ****     0x0000u,0x0000u,0x0000u,0x0000u,0x0000u,0x0000u,0x0000u,0x0000u,
  40:Generated_Source\PSoC4/LCD_Seg_1.c ****     0x0000u,0x0000u,0x0000u,0x0000u,0x0000u,0x0000u,0x0000u,0x0000u,
  41:Generated_Source\PSoC4/LCD_Seg_1.c ****     /*------------------------------------------------------------*/
  42:Generated_Source\PSoC4/LCD_Seg_1.c ****     /*         !       "       #       $       %       &       '  */
  43:Generated_Source\PSoC4/LCD_Seg_1.c ****     /*------------------------------------------------------------*/
  44:Generated_Source\PSoC4/LCD_Seg_1.c ****     0x0000u,0x0006u,0x0120u,0x3fffu,0x156du,0x2ee4u,0x2a8du,0x0200u,
  45:Generated_Source\PSoC4/LCD_Seg_1.c ****     /*------------------------------------------------------------*/
  46:Generated_Source\PSoC4/LCD_Seg_1.c ****     /* (       )       *       +       ,       -       .       /  */
  47:Generated_Source\PSoC4/LCD_Seg_1.c ****     /*------------------------------------------------------------*/
  48:Generated_Source\PSoC4/LCD_Seg_1.c ****     0x0a00u,0x2080u,0x3fc0u,0x1540u,0x2000u,0x0440u,0x1058u,0x2200u,
  49:Generated_Source\PSoC4/LCD_Seg_1.c ****     /*------------------------------------------------------------*/
  50:Generated_Source\PSoC4/LCD_Seg_1.c ****     /* 0       1       2       3       4       5       6       7  */
  51:Generated_Source\PSoC4/LCD_Seg_1.c ****     /*------------------------------------------------------------*/
  52:Generated_Source\PSoC4/LCD_Seg_1.c ****     0x223fu,0x0206u,0x045bu,0x040fu,0x0466u,0x0869u,0x047du,0x1201u,
  53:Generated_Source\PSoC4/LCD_Seg_1.c ****     /*------------------------------------------------------------*/
  54:Generated_Source\PSoC4/LCD_Seg_1.c ****     /* 8       9       :       ;       <       =       >       ?  */
  55:Generated_Source\PSoC4/LCD_Seg_1.c ****     /*------------------------------------------------------------*/
  56:Generated_Source\PSoC4/LCD_Seg_1.c ****     0x047fu,0x046fu,0x1100u,0x2100u,0x0a00u,0x0448u,0x2080u,0x1423u,
  57:Generated_Source\PSoC4/LCD_Seg_1.c ****     /*------------------------------------------------------------*/
  58:Generated_Source\PSoC4/LCD_Seg_1.c ****     /* @       A       B       C       D       E       F       G  */
  59:Generated_Source\PSoC4/LCD_Seg_1.c ****     /*------------------------------------------------------------*/
  60:Generated_Source\PSoC4/LCD_Seg_1.c ****     0x053bu,0x0477u,0x150fu,0x0039u,0x110Fu,0x0079u,0x0071u,0x043du,
  61:Generated_Source\PSoC4/LCD_Seg_1.c ****     /*------------------------------------------------------------*/
  62:Generated_Source\PSoC4/LCD_Seg_1.c ****     /* H       I       J       K       L       M       N       O  */
  63:Generated_Source\PSoC4/LCD_Seg_1.c ****     /*------------------------------------------------------------*/
  64:Generated_Source\PSoC4/LCD_Seg_1.c ****     0x0476u,0x1100u,0x001eu,0x0a70u,0x0038u,0x02b6u,0x08b6u,0x003fu,
  65:Generated_Source\PSoC4/LCD_Seg_1.c ****     /*------------------------------------------------------------*/
  66:Generated_Source\PSoC4/LCD_Seg_1.c ****     /* P       Q       R       S       T       U       V       W  */
  67:Generated_Source\PSoC4/LCD_Seg_1.c ****     /*------------------------------------------------------------*/
  68:Generated_Source\PSoC4/LCD_Seg_1.c ****     0x0473u,0x083fu,0x0C73u,0x046du,0x1101u,0x003eu,0x2230u,0x2836u,
  69:Generated_Source\PSoC4/LCD_Seg_1.c ****     /*------------------------------------------------------------*/
  70:Generated_Source\PSoC4/LCD_Seg_1.c ****     /* X       Y       Z       [       \       ]       ^       _  */
  71:Generated_Source\PSoC4/LCD_Seg_1.c ****     /*------------------------------------------------------------*/
  72:Generated_Source\PSoC4/LCD_Seg_1.c ****     0x2a80u,0x1462u,0x2209u,0x0039u,0x0880u,0x000fu,0x0003u,0x0008u,
  73:Generated_Source\PSoC4/LCD_Seg_1.c ****     /*------------------------------------------------------------*/
  74:Generated_Source\PSoC4/LCD_Seg_1.c ****     /* @       a       b       c       d       e       f       g  */
  75:Generated_Source\PSoC4/LCD_Seg_1.c ****     /*------------------------------------------------------------*/
  76:Generated_Source\PSoC4/LCD_Seg_1.c ****     0x053bu,0x0477u,0x150fu,0x0039u,0x110Fu,0x0079u,0x0071u,0x043du,
  77:Generated_Source\PSoC4/LCD_Seg_1.c ****     /*------------------------------------------------------------*/
  78:Generated_Source\PSoC4/LCD_Seg_1.c ****     /* h       i       j       k       l       m       n       o  */
  79:Generated_Source\PSoC4/LCD_Seg_1.c ****     /*------------------------------------------------------------*/
  80:Generated_Source\PSoC4/LCD_Seg_1.c ****     0x0476u,0x1100u,0x001eu,0x0a70u,0x0038u,0x02b6u,0x08b6u,0x003fu,
  81:Generated_Source\PSoC4/LCD_Seg_1.c ****     /*------------------------------------------------------------*/
  82:Generated_Source\PSoC4/LCD_Seg_1.c ****     /* p       q       r       s       t       u       v       w  */
  83:Generated_Source\PSoC4/LCD_Seg_1.c ****     /*------------------------------------------------------------*/
  84:Generated_Source\PSoC4/LCD_Seg_1.c ****     0x0473u,0x083fu,0x0C73u,0x046du,0x1101u,0x003eu,0x2230u,0x2836u,
  85:Generated_Source\PSoC4/LCD_Seg_1.c ****     /*------------------------------------------------------------*/
  86:Generated_Source\PSoC4/LCD_Seg_1.c ****     /* x       y       z       {       |       }        ~      O  */
  87:Generated_Source\PSoC4/LCD_Seg_1.c ****     /*------------------------------------------------------------*/
  88:Generated_Source\PSoC4/LCD_Seg_1.c ****     0x2a80u,0x1280u,0x2209u,0x0e00u,0x1100u,0x20C0u,0x0452u,0x003fu};
ARM GAS  C:\Users\iborg\AppData\Local\Temp\ccRvSWiO.s 			page 3


  89:Generated_Source\PSoC4/LCD_Seg_1.c **** #endif /* LCD_Seg_1_14SEG */
  90:Generated_Source\PSoC4/LCD_Seg_1.c **** 
  91:Generated_Source\PSoC4/LCD_Seg_1.c **** #ifdef LCD_Seg_1_16SEG
  92:Generated_Source\PSoC4/LCD_Seg_1.c ****     static const uint16 LCD_Seg_1_16SegChars[] = {
  93:Generated_Source\PSoC4/LCD_Seg_1.c ****     /*------------------------------------------------------------*/
  94:Generated_Source\PSoC4/LCD_Seg_1.c ****     /*                           Blank                            */
  95:Generated_Source\PSoC4/LCD_Seg_1.c ****     /*------------------------------------------------------------*/
  96:Generated_Source\PSoC4/LCD_Seg_1.c ****     0x0000u,0x0000u,0x0000u,0x0000u,0x0000u,0x0000u,0x0000u,0x0000u,
  97:Generated_Source\PSoC4/LCD_Seg_1.c ****     0x0000u,0x0000u,0x0000u,0x0000u,0x0000u,0x0000u,0x0000u,0x0000u,
  98:Generated_Source\PSoC4/LCD_Seg_1.c ****     0x0000u,0x0000u,0x0000u,0x0000u,0x0000u,0x0000u,0x0000u,0x0000u,
  99:Generated_Source\PSoC4/LCD_Seg_1.c ****     0x0000u,0x0000u,0x0000u,0x0000u,0x0000u,0x0000u,0x0000u,0x0000u,
 100:Generated_Source\PSoC4/LCD_Seg_1.c ****     /*------------------------------------------------------------*/
 101:Generated_Source\PSoC4/LCD_Seg_1.c ****     /*         !       "       #       $       %       &       '  */
 102:Generated_Source\PSoC4/LCD_Seg_1.c ****     /*------------------------------------------------------------*/
 103:Generated_Source\PSoC4/LCD_Seg_1.c ****     0x0000u,0x000cu,0x0480u,0xffffu,0x55bbu,0xdd99u,0xaa3bu,0x0800u,
 104:Generated_Source\PSoC4/LCD_Seg_1.c ****     /*------------------------------------------------------------*/
 105:Generated_Source\PSoC4/LCD_Seg_1.c ****     /* (       )       *       +       ,       -       .       /  */
 106:Generated_Source\PSoC4/LCD_Seg_1.c ****     /*------------------------------------------------------------*/
 107:Generated_Source\PSoC4/LCD_Seg_1.c ****     0x2800u,0x8200u,0xff00u,0x5500u,0x8000u,0x1100u,0x4160u,0x8800u,
 108:Generated_Source\PSoC4/LCD_Seg_1.c ****     /*------------------------------------------------------------*/
 109:Generated_Source\PSoC4/LCD_Seg_1.c ****     /* 0       1       2       3       4       5       6       7  */
 110:Generated_Source\PSoC4/LCD_Seg_1.c ****     /*------------------------------------------------------------*/
 111:Generated_Source\PSoC4/LCD_Seg_1.c ****     0x88ffu,0x000cu,0x1177u,0x103fu,0x118cu,0x21b3u,0x11fbu,0x4803u,
 112:Generated_Source\PSoC4/LCD_Seg_1.c ****     /*------------------------------------------------------------*/
 113:Generated_Source\PSoC4/LCD_Seg_1.c ****     /* 8       9       :       ;       <       =       >       ?  */
 114:Generated_Source\PSoC4/LCD_Seg_1.c ****     /*------------------------------------------------------------*/
 115:Generated_Source\PSoC4/LCD_Seg_1.c ****     0x11ffu,0x11bfu,0x4400u,0x8400u,0x2800u,0x1130u,0x8200u,0x5087u,
 116:Generated_Source\PSoC4/LCD_Seg_1.c ****     /*------------------------------------------------------------*/
 117:Generated_Source\PSoC4/LCD_Seg_1.c ****     /* @       A       B       C       D       E       F       G  */
 118:Generated_Source\PSoC4/LCD_Seg_1.c ****     /*------------------------------------------------------------*/
 119:Generated_Source\PSoC4/LCD_Seg_1.c ****     0x14f7u,0x11cfu,0x543fu,0x00f3u,0x443fu,0x01f3u,0x01c3u,0x10fbu,
 120:Generated_Source\PSoC4/LCD_Seg_1.c ****     /*------------------------------------------------------------*/
 121:Generated_Source\PSoC4/LCD_Seg_1.c ****     /* H       I       J       K       L       M       N       O  */
 122:Generated_Source\PSoC4/LCD_Seg_1.c ****     /*------------------------------------------------------------*/
 123:Generated_Source\PSoC4/LCD_Seg_1.c ****     0x11ccu,0x4400u,0x007eu,0x29c0u,0x00f0u,0x0accu,0x22ccu,0x00ffu,
 124:Generated_Source\PSoC4/LCD_Seg_1.c ****     /*------------------------------------------------------------*/
 125:Generated_Source\PSoC4/LCD_Seg_1.c ****     /* P       Q       R       S       T       U       V       W  */
 126:Generated_Source\PSoC4/LCD_Seg_1.c ****     /*------------------------------------------------------------*/
 127:Generated_Source\PSoC4/LCD_Seg_1.c ****     0x11c7u,0x20ffu,0x31c7u,0x11bbu,0x4403u,0x00fcu,0x88c0u,0xa0ccu,
 128:Generated_Source\PSoC4/LCD_Seg_1.c ****     /*------------------------------------------------------------*/
 129:Generated_Source\PSoC4/LCD_Seg_1.c ****     /* X       Y       Z       [       \       ]       ^       _  */
 130:Generated_Source\PSoC4/LCD_Seg_1.c ****     /*------------------------------------------------------------*/
 131:Generated_Source\PSoC4/LCD_Seg_1.c ****     0xaa00u,0x5184u,0x8833u,0x4412u,0x2200u,0x4421u,0x0006u,0x0030u,
 132:Generated_Source\PSoC4/LCD_Seg_1.c ****     /*------------------------------------------------------------*/
 133:Generated_Source\PSoC4/LCD_Seg_1.c ****     /* @       a       b       c       d       e       f       g  */
 134:Generated_Source\PSoC4/LCD_Seg_1.c ****     /*------------------------------------------------------------*/
 135:Generated_Source\PSoC4/LCD_Seg_1.c ****     0x14f7u,0x11cfu,0x543fu,0x00f3u,0x443fu,0x01f3u,0x01c3u,0x10fbu,
 136:Generated_Source\PSoC4/LCD_Seg_1.c ****     /*------------------------------------------------------------*/
 137:Generated_Source\PSoC4/LCD_Seg_1.c ****     /* h       i       j       k       l       m       n       o  */
 138:Generated_Source\PSoC4/LCD_Seg_1.c ****     /*------------------------------------------------------------*/
 139:Generated_Source\PSoC4/LCD_Seg_1.c ****     0x11ccu,0x4400u,0x007eu,0x29c0u,0x00f0u,0x0accu,0x22ccu,0x00ffu,
 140:Generated_Source\PSoC4/LCD_Seg_1.c ****     /*------------------------------------------------------------*/
 141:Generated_Source\PSoC4/LCD_Seg_1.c ****     /* p       q       r       s       t       u       v       w  */
 142:Generated_Source\PSoC4/LCD_Seg_1.c ****     /*------------------------------------------------------------*/
 143:Generated_Source\PSoC4/LCD_Seg_1.c ****     0x11c7u,0x20ffu,0x31c7u,0x11bbu,0x4403u,0x00fcu,0x88c0u,0xa0ccu,
 144:Generated_Source\PSoC4/LCD_Seg_1.c ****     /*------------------------------------------------------------*/
 145:Generated_Source\PSoC4/LCD_Seg_1.c ****     /* x       y       z       {       |       }        ~         */
ARM GAS  C:\Users\iborg\AppData\Local\Temp\ccRvSWiO.s 			page 4


 146:Generated_Source\PSoC4/LCD_Seg_1.c ****     /*------------------------------------------------------------*/
 147:Generated_Source\PSoC4/LCD_Seg_1.c ****     0xaa00u,0x4A00u,0x8833u,0x3800u,0x4400u,0x8300u,0x1144u,0x0000u};
 148:Generated_Source\PSoC4/LCD_Seg_1.c **** #endif /* LCD_Seg_1_16SEG */
 149:Generated_Source\PSoC4/LCD_Seg_1.c **** 
 150:Generated_Source\PSoC4/LCD_Seg_1.c **** #ifdef LCD_Seg_1_DOT_MATRIX
 151:Generated_Source\PSoC4/LCD_Seg_1.c ****     static const uint8 LCD_Seg_1_charDotMatrix[][LCD_Seg_1_DM_CHAR_WIDTH] = {
 152:Generated_Source\PSoC4/LCD_Seg_1.c ****         {0x00u, 0x00u, 0x00u, 0x00u, 0x00u}, {0x00u, 0x00u, 0x00u, 0x00u, 0x00u},
 153:Generated_Source\PSoC4/LCD_Seg_1.c ****         {0x00u, 0x00u, 0x00u, 0x00u, 0x00u}, {0x00u, 0x00u, 0x00u, 0x00u, 0x00u}, {0x00u, 0x00u, 0x
 154:Generated_Source\PSoC4/LCD_Seg_1.c ****         {0x00u, 0x00u, 0x00u, 0x00u, 0x00u}, {0x00u, 0x00u, 0x00u, 0x00u, 0x00u}, {0x00u, 0x00u, 0x
 155:Generated_Source\PSoC4/LCD_Seg_1.c ****         {0x00u, 0x00u, 0x00u, 0x00u, 0x00u}, {0x00u, 0x00u, 0x00u, 0x00u, 0x00u}, {0x00u, 0x00u, 0x
 156:Generated_Source\PSoC4/LCD_Seg_1.c ****         {0x00u, 0x00u, 0x00u, 0x00u, 0x00u}, {0x00u, 0x00u, 0x00u, 0x00u, 0x00u}, {0x00u, 0x00u, 0x
 157:Generated_Source\PSoC4/LCD_Seg_1.c ****         {0x00u, 0x00u, 0x00u, 0x00u, 0x00u}, {0x00u, 0x00u, 0x00u, 0x00u, 0x00u}, {0x3Eu, 0x1Cu, 0x
 158:Generated_Source\PSoC4/LCD_Seg_1.c ****         {0x08u, 0x08u, 0x1Cu, 0x1Cu, 0x3Eu}, {0x02u, 0x06u, 0x08u, 0x10u, 0x20u}, {0x00u, 0x4Fu, 0x
 159:Generated_Source\PSoC4/LCD_Seg_1.c ****         {0x06u, 0x0Fu, 0x7Fu, 0x01u, 0x7Fu}, {0x48u, 0x56u, 0x55u, 0x35u, 0x09u}, {0x0Cu, 0x0Cu, 0x
 160:Generated_Source\PSoC4/LCD_Seg_1.c ****         {0x10u, 0x38u, 0x54u, 0x10u, 0x1Fu}, {0x04u, 0x02u, 0x7Fu, 0x02u, 0x04u}, {0x10u, 0x20u, 0x
 161:Generated_Source\PSoC4/LCD_Seg_1.c ****         {0x7Fu, 0x3Eu, 0x1Cu, 0x08u, 0x7Fu}, {0x7Fu, 0x08u, 0x1Cu, 0x3Eu, 0x7Fu}, {0x7Fu, 0x08u, 0x
 162:Generated_Source\PSoC4/LCD_Seg_1.c ****         {0x08u, 0x1Cu, 0x2Au, 0x08u, 0x7Fu}, {0x02u, 0x0Eu, 0x3Eu, 0x0Eu, 0x02u}, {0x20u, 0x38u, 0x
 163:Generated_Source\PSoC4/LCD_Seg_1.c ****         {0x00u, 0x00u, 0x00u, 0x00u, 0x00u}, {0x00u, 0x00u, 0x4Fu, 0x00u, 0x00u}, {0x00u, 0x07u, 0x
 164:Generated_Source\PSoC4/LCD_Seg_1.c ****         {0x14u, 0x7Fu, 0x14u, 0x7Fu, 0x14u}, {0x24u, 0x2Au, 0x7Fu, 0x2Au, 0x12u}, {0x23u, 0x13u, 0x
 165:Generated_Source\PSoC4/LCD_Seg_1.c ****         {0x36u, 0x49u, 0x55u, 0x22u, 0x50u}, {0x00u, 0x05u, 0x03u, 0x00u, 0x00u}, {0x00u, 0x1Cu, 0x
 166:Generated_Source\PSoC4/LCD_Seg_1.c ****         {0x00u, 0x41u, 0x22u, 0x1Cu, 0x00u}, {0x14u, 0x08u, 0x3Eu, 0x08u, 0x14u}, {0x08u, 0x08u, 0x
 167:Generated_Source\PSoC4/LCD_Seg_1.c ****         {0x00u, 0x50u, 0x30u, 0x00u, 0x00u}, {0x08u, 0x08u, 0x08u, 0x08u, 0x08u}, {0x00u, 0x60u, 0x
 168:Generated_Source\PSoC4/LCD_Seg_1.c ****         {0x20u, 0x10u, 0x08u, 0x04u, 0x02u}, {0x3Eu, 0x51u, 0x49u, 0x45u, 0x3Eu}, {0x00u, 0x42u, 0x
 169:Generated_Source\PSoC4/LCD_Seg_1.c ****         {0x42u, 0x61u, 0x51u, 0x49u, 0x46u}, {0x21u, 0x41u, 0x45u, 0x4Bu, 0x31u}, {0x18u, 0x14u, 0x
 170:Generated_Source\PSoC4/LCD_Seg_1.c ****         {0x27u, 0x45u, 0x45u, 0x45u, 0x39u}, {0x3Cu, 0x4Au, 0x49u, 0x49u, 0x30u}, {0x01u, 0x71u, 0x
 171:Generated_Source\PSoC4/LCD_Seg_1.c ****         {0x36u, 0x49u, 0x49u, 0x49u, 0x36u}, {0x06u, 0x49u, 0x49u, 0x29u, 0x1Eu}, {0x00u, 0x36u, 0x
 172:Generated_Source\PSoC4/LCD_Seg_1.c ****         {0x00u, 0x56u, 0x36u, 0x00u, 0x00u}, {0x08u, 0x14u, 0x22u, 0x41u, 0x00u}, {0x14u, 0x14u, 0x
 173:Generated_Source\PSoC4/LCD_Seg_1.c ****         {0x00u, 0x41u, 0x22u, 0x14u, 0x08u}, {0x02u, 0x01u, 0x51u, 0x09u, 0x06u}, {0x32u, 0x49u, 0x
 174:Generated_Source\PSoC4/LCD_Seg_1.c ****         {0x7Eu, 0x11u, 0x11u, 0x11u, 0x7Eu}, {0x7Fu, 0x49u, 0x49u, 0x49u, 0x36u}, {0x3Eu, 0x41u, 0x
 175:Generated_Source\PSoC4/LCD_Seg_1.c ****         {0x7Fu, 0x41u, 0x41u, 0x22u, 0x1Cu}, {0x7Fu, 0x49u, 0x49u, 0x49u, 0x41u}, {0x7Fu, 0x09u, 0x
 176:Generated_Source\PSoC4/LCD_Seg_1.c ****         {0x3Eu, 0x41u, 0x49u, 0x49u, 0x3Au}, {0x7Fu, 0x08u, 0x08u, 0x08u, 0x7Fu}, {0x00u, 0x41u, 0x
 177:Generated_Source\PSoC4/LCD_Seg_1.c ****         {0x20u, 0x40u, 0x41u, 0x3Fu, 0x01u}, {0x7Fu, 0x08u, 0x14u, 0x22u, 0x41u}, {0x7Fu, 0x40u, 0x
 178:Generated_Source\PSoC4/LCD_Seg_1.c ****         {0x7Fu, 0x02u, 0x0Cu, 0x02u, 0x7Fu}, {0x7Fu, 0x04u, 0x08u, 0x10u, 0x7Fu}, {0x3Eu, 0x41u, 0x
 179:Generated_Source\PSoC4/LCD_Seg_1.c ****         {0x7Fu, 0x09u, 0x09u, 0x09u, 0x06u}, {0x3Eu, 0x41u, 0x51u, 0x21u, 0x5Eu}, {0x7Fu, 0x09u, 0x
 180:Generated_Source\PSoC4/LCD_Seg_1.c ****         {0x46u, 0x49u, 0x49u, 0x49u, 0x31u}, {0x01u, 0x01u, 0x7Fu, 0x01u, 0x01u}, {0x3Fu, 0x40u, 0x
 181:Generated_Source\PSoC4/LCD_Seg_1.c ****         {0x1Fu, 0x20u, 0x40u, 0x20u, 0x1Fu}, {0x3Fu, 0x40u, 0x38u, 0x40u, 0x3Fu}, {0x63u, 0x14u, 0x
 182:Generated_Source\PSoC4/LCD_Seg_1.c ****         {0x07u, 0x08u, 0x70u, 0x08u, 0x07u}, {0x61u, 0x51u, 0x49u, 0x45u, 0x43u}, {0x00u, 0x7Fu, 0x
 183:Generated_Source\PSoC4/LCD_Seg_1.c ****         {0x15u, 0x16u, 0x7Cu, 0x16u, 0x15u}, {0x00u, 0x41u, 0x41u, 0x7Fu, 0x00u}, {0x04u, 0x02u, 0x
 184:Generated_Source\PSoC4/LCD_Seg_1.c ****         {0x40u, 0x40u, 0x40u, 0x40u, 0x40u}, {0x00u, 0x01u, 0x02u, 0x04u, 0x00u}, {0x20u, 0x54u, 0x
 185:Generated_Source\PSoC4/LCD_Seg_1.c ****         {0x7Fu, 0x48u, 0x44u, 0x44u, 0x38u}, {0x38u, 0x44u, 0x44u, 0x44u, 0x40u}, {0x38u, 0x44u, 0x
 186:Generated_Source\PSoC4/LCD_Seg_1.c ****         {0x38u, 0x54u, 0x54u, 0x54u, 0x18u}, {0x08u, 0x7Eu, 0x09u, 0x01u, 0x02u}, {0x0Cu, 0x52u, 0x
 187:Generated_Source\PSoC4/LCD_Seg_1.c ****         {0x7Fu, 0x08u, 0x04u, 0x04u, 0x78u}, {0x00u, 0x44u, 0x7Du, 0x40u, 0x00u}, {0x20u, 0x40u, 0x
 188:Generated_Source\PSoC4/LCD_Seg_1.c ****         {0x7Fu, 0x10u, 0x28u, 0x44u, 0x00u}, {0x00u, 0x41u, 0x7Fu, 0x40u, 0x00u}, {0x7Cu, 0x04u, 0x
 189:Generated_Source\PSoC4/LCD_Seg_1.c ****         {0x7Cu, 0x08u, 0x04u, 0x04u, 0x78u}, {0x38u, 0x44u, 0x44u, 0x44u, 0x38u}, {0x7Cu, 0x14u, 0x
 190:Generated_Source\PSoC4/LCD_Seg_1.c ****         {0x08u, 0x14u, 0x14u, 0x18u, 0x7Cu}, {0x7Cu, 0x08u, 0x04u, 0x04u, 0x08u}, {0x48u, 0x54u, 0x
 191:Generated_Source\PSoC4/LCD_Seg_1.c ****         {0x04u, 0x3Fu, 0x44u, 0x40u, 0x20u}, {0x3Cu, 0x40u, 0x40u, 0x20u, 0x7Cu}, {0x1Cu, 0x20u, 0x
 192:Generated_Source\PSoC4/LCD_Seg_1.c ****         {0x3Cu, 0x40u, 0x30u, 0x40u, 0x3Cu}, {0x44u, 0x28u, 0x10u, 0x28u, 0x44u}, {0x0Cu, 0x50u, 0x
 193:Generated_Source\PSoC4/LCD_Seg_1.c ****         {0x44u, 0x64u, 0x54u, 0x4Cu, 0x44u}, {0x00u, 0x08u, 0x36u, 0x41u, 0x00u}, {0x00u, 0x00u, 0x
 194:Generated_Source\PSoC4/LCD_Seg_1.c ****         {0x00u, 0x41u, 0x36u, 0x08u, 0x00u}, {0x00u, 0x00u, 0x00u, 0x00u, 0x00u}, {0x08u, 0x08u, 0x
 195:Generated_Source\PSoC4/LCD_Seg_1.c ****         {0x44u, 0x44u, 0x5Fu, 0x44u, 0x44u}, {0x22u, 0x14u, 0x08u, 0x14u, 0x22u}, {0x1Cu, 0x3Eu, 0x
 196:Generated_Source\PSoC4/LCD_Seg_1.c ****         {0x7Fu, 0x41u, 0x41u, 0x41u, 0x7Fu}, {0x7Fu, 0x5Bu, 0x41u, 0x5Fu, 0x7Fu}, {0x7Fu, 0x4Du, 0x
 197:Generated_Source\PSoC4/LCD_Seg_1.c ****         {0x1Du, 0x15u, 0x17u, 0x00u, 0x00u}, {0x15u, 0x15u, 0x1Fu, 0x00u, 0x00u}, {0x17u, 0x08u, 0x
 198:Generated_Source\PSoC4/LCD_Seg_1.c ****         {0x17u, 0x08u, 0x24u, 0x32u, 0x79u}, {0x35u, 0x1Fu, 0x28u, 0x34u, 0x7Au}, {0x08u, 0x14u, 0x
 199:Generated_Source\PSoC4/LCD_Seg_1.c ****         {0x22u, 0x14u, 0x2Au, 0x14u, 0x08u}, {0x08u, 0x04u, 0x08u, 0x10u, 0x08u}, {0x14u, 0x0Au, 0x
 200:Generated_Source\PSoC4/LCD_Seg_1.c ****         {0x2Au, 0x55u, 0x2Au, 0x55u, 0x2Au}, {0x24u, 0x3Bu, 0x2Au, 0x7Eu, 0x2Au}, {0x40u, 0x3Fu, 0x
 201:Generated_Source\PSoC4/LCD_Seg_1.c ****         {0x46u, 0x20u, 0x1Fu, 0x20u, 0x46u}, {0x24u, 0x14u, 0x7Fu, 0x18u, 0x24u}, {0x24u, 0x14u, 0x
 202:Generated_Source\PSoC4/LCD_Seg_1.c ****         {0x44u, 0x6Au, 0x79u, 0x6Au, 0x44u}, {0x40u, 0x44u, 0x7Fu, 0x44u, 0x40u}, {0x7Fu, 0x49u, 0x
ARM GAS  C:\Users\iborg\AppData\Local\Temp\ccRvSWiO.s 			page 5


 203:Generated_Source\PSoC4/LCD_Seg_1.c ****         {0x02u, 0x4Cu, 0x30u, 0x0Cu, 0x02u}, {0x04u, 0x04u, 0x3Cu, 0x04u, 0x44u}, {0x49u, 0x55u, 0x
 204:Generated_Source\PSoC4/LCD_Seg_1.c ****         {0x3Au, 0x45u, 0x45u, 0x45u, 0x39u}, {0x40u, 0x3Eu, 0x10u, 0x10u, 0x1Eu}, {0x08u, 0x54u, 0x
 205:Generated_Source\PSoC4/LCD_Seg_1.c ****         {0x7Fu, 0x7Fu, 0x7Fu, 0x7Fu, 0x7Fu}, {0x55u, 0x2Au, 0x55u, 0x2Au, 0x55u}, {0x00u, 0x00u, 0x
 206:Generated_Source\PSoC4/LCD_Seg_1.c ****         {0x70u, 0x50u, 0x70u, 0x00u, 0x00u}, {0x00u, 0x00u, 0x0Fu, 0x01u, 0x01u}, {0x40u, 0x40u, 0x
 207:Generated_Source\PSoC4/LCD_Seg_1.c ****         {0x10u, 0x20u, 0x40u, 0x00u, 0x00u}, {0x00u, 0x18u, 0x18u, 0x00u, 0x00u}, {0x0Au, 0x0Au, 0x
 208:Generated_Source\PSoC4/LCD_Seg_1.c ****         {0x04u, 0x44u, 0x34u, 0x14u, 0x0Cu}, {0x20u, 0x10u, 0x78u, 0x04u, 0x00u}, {0x18u, 0x08u, 0x
 209:Generated_Source\PSoC4/LCD_Seg_1.c ****         {0x48u, 0x48u, 0x78u, 0x48u, 0x48u}, {0x48u, 0x28u, 0x18u, 0x78u, 0x08u}, {0x08u, 0x7Cu, 0x
 210:Generated_Source\PSoC4/LCD_Seg_1.c ****         {0x40u, 0x48u, 0x48u, 0x78u, 0x40u}, {0x54u, 0x54u, 0x54u, 0x7Cu, 0x00u}, {0x18u, 0x00u, 0x
 211:Generated_Source\PSoC4/LCD_Seg_1.c ****         {0x08u, 0x08u, 0x08u, 0x08u, 0x08u}, {0x01u, 0x41u, 0x3Du, 0x09u, 0x07u}, {0x10u, 0x08u, 0x
 212:Generated_Source\PSoC4/LCD_Seg_1.c ****         {0x06u, 0x02u, 0x43u, 0x22u, 0x1Eu}, {0x42u, 0x42u, 0x7Eu, 0x42u, 0x42u}, {0x22u, 0x12u, 0x
 213:Generated_Source\PSoC4/LCD_Seg_1.c ****         {0x42u, 0x3Fu, 0x02u, 0x42u, 0x3Eu}, {0x0Au, 0x0Au, 0x7Fu, 0x0Au, 0x0Au}, {0x08u, 0x46u, 0x
 214:Generated_Source\PSoC4/LCD_Seg_1.c ****         {0x04u, 0x03u, 0x42u, 0x3Eu, 0x02u}, {0x42u, 0x42u, 0x42u, 0x42u, 0x7Eu}, {0x02u, 0x4Fu, 0x
 215:Generated_Source\PSoC4/LCD_Seg_1.c ****         {0x4Au, 0x4Au, 0x40u, 0x20u, 0x1Cu}, {0x42u, 0x22u, 0x12u, 0x2Au, 0x46u}, {0x02u, 0x3Fu, 0x
 216:Generated_Source\PSoC4/LCD_Seg_1.c ****         {0x06u, 0x48u, 0x40u, 0x20u, 0x1Eu}, {0x08u, 0x46u, 0x4Au, 0x32u, 0x1Eu}, {0x0Au, 0x4Au, 0x
 217:Generated_Source\PSoC4/LCD_Seg_1.c ****         {0x0Eu, 0x00u, 0x4Eu, 0x20u, 0x1Eu}, {0x04u, 0x45u, 0x3Du, 0x05u, 0x04u}, {0x00u, 0x7Fu, 0x
 218:Generated_Source\PSoC4/LCD_Seg_1.c ****         {0x44u, 0x24u, 0x1Fu, 0x04u, 0x04u}, {0x40u, 0x42u, 0x42u, 0x42u, 0x40u}, {0x42u, 0x2Au, 0x
 219:Generated_Source\PSoC4/LCD_Seg_1.c ****         {0x22u, 0x12u, 0x7Au, 0x16u, 0x22u}, {0x00u, 0x40u, 0x20u, 0x1Fu, 0x00u}, {0x78u, 0x00u, 0x
 220:Generated_Source\PSoC4/LCD_Seg_1.c ****         {0x3Fu, 0x44u, 0x44u, 0x44u, 0x44u}, {0x02u, 0x42u, 0x42u, 0x22u, 0x1Eu}, {0x04u, 0x02u, 0x
 221:Generated_Source\PSoC4/LCD_Seg_1.c ****         {0x32u, 0x02u, 0x7Fu, 0x02u, 0x32u}, {0x02u, 0x12u, 0x22u, 0x52u, 0x0Eu}, {0x00u, 0x2Au, 0x
 222:Generated_Source\PSoC4/LCD_Seg_1.c ****         {0x38u, 0x24u, 0x22u, 0x20u, 0x1Eu}, {0x40u, 0x28u, 0x10u, 0x28u, 0x06u}, {0x0Au, 0x3Eu, 0x
 223:Generated_Source\PSoC4/LCD_Seg_1.c ****         {0x04u, 0x7Fu, 0x04u, 0x14u, 0x0Cu}, {0x40u, 0x42u, 0x42u, 0x7Eu, 0x40u}, {0x4Au, 0x4Au, 0x
 224:Generated_Source\PSoC4/LCD_Seg_1.c ****         {0x04u, 0x05u, 0x45u, 0x15u, 0x1Cu}, {0x0Fu, 0x40u, 0x20u, 0x1Fu, 0x00u}, {0x7Cu, 0x00u, 0x
 225:Generated_Source\PSoC4/LCD_Seg_1.c ****         {0x7Eu, 0x40u, 0x20u, 0x10u, 0x08u}, {0x7Eu, 0x7Eu, 0x7Eu, 0x7Eu, 0x7Eu}, {0x0Eu, 0x02u, 0x
 226:Generated_Source\PSoC4/LCD_Seg_1.c ****         {0x42u, 0x42u, 0x40u, 0x20u, 0x18u}, {0x02u, 0x04u, 0x01u, 0x02u, 0x00u}, {0x07u, 0x05u, 0x
 227:Generated_Source\PSoC4/LCD_Seg_1.c ****         {0x38u, 0x44u, 0x48u, 0x30u, 0x4Cu}, {0x20u, 0x55u, 0x55u, 0x55u, 0x38u}, {0xFEu, 0x15u, 0x
 228:Generated_Source\PSoC4/LCD_Seg_1.c ****         {0x28u, 0x54u, 0x54u, 0x44u, 0x20u}, {0xFFu, 0x10u, 0x10u, 0x08u, 0x1Fu}, {0x38u, 0x44u, 0x
 229:Generated_Source\PSoC4/LCD_Seg_1.c ****         {0xFCu, 0x12u, 0x11u, 0x11u, 0x0Eu}, {0x0Eu, 0xA1u, 0xA1u, 0xA1u, 0x7Fu}, {0x20u, 0x40u, 0x
 230:Generated_Source\PSoC4/LCD_Seg_1.c ****         {0x04u, 0x04u, 0x00u, 0x0Eu, 0x00u}, {0x40u, 0x80u, 0x81u, 0x7Fu, 0x00u}, {0x0Au, 0x04u, 0x
 231:Generated_Source\PSoC4/LCD_Seg_1.c ****         {0x18u, 0x24u, 0x7Eu, 0x24u, 0x10u}, {0x14u, 0x7Fu, 0x54u, 0x40u, 0x40u}, {0x7Cu, 0x0Au, 0x
 232:Generated_Source\PSoC4/LCD_Seg_1.c ****         {0x38u, 0x45u, 0x45u, 0x45u, 0x38u}, {0xFFu, 0x12u, 0x11u, 0x11u, 0x0Eu}, {0x0Eu, 0x11u, 0x
 233:Generated_Source\PSoC4/LCD_Seg_1.c ****         {0x3Cu, 0x4Au, 0x4Au, 0x4Au, 0x3Cu}, {0x30u, 0x28u, 0x10u, 0x28u, 0x18u}, {0x58u, 0x64u, 0x
 234:Generated_Source\PSoC4/LCD_Seg_1.c ****         {0x3Cu, 0x41u, 0x40u, 0x21u, 0x7Cu}, {0x63u, 0x55u, 0x4Au, 0x41u, 0x41u}, {0x44u, 0x3Cu, 0x
 235:Generated_Source\PSoC4/LCD_Seg_1.c ****         {0x45u, 0x29u, 0x11u, 0x29u, 0x45u}, {0x0Fu, 0x90u, 0x90u, 0x90u, 0x7Fu}, {0x14u, 0x14u, 0x
 236:Generated_Source\PSoC4/LCD_Seg_1.c ****         {0x44u, 0x3Cu, 0x14u, 0x14u, 0x74u}, {0x7Cu, 0x14u, 0x1Cu, 0x14u, 0x7Cu}, {0x10u, 0x10u, 0x
 237:Generated_Source\PSoC4/LCD_Seg_1.c ****         {0x00u, 0x00u, 0x00u, 0x00u, 0x00u}, {0xFFu, 0xFFu, 0xFFu, 0xFFu, 0xFFu}
 238:Generated_Source\PSoC4/LCD_Seg_1.c ****         };
 239:Generated_Source\PSoC4/LCD_Seg_1.c **** #endif /* LCD_Seg_1_DOT_MATRIX */
 240:Generated_Source\PSoC4/LCD_Seg_1.c **** 
 241:Generated_Source\PSoC4/LCD_Seg_1.c **** /* Start of customizer generated code */
 242:Generated_Source\PSoC4/LCD_Seg_1.c **** static const uint32 LCD_Seg_1_dividersLS[][LCD_Seg_1_CONTRAST_DIVIDERS_NUMBER] = {
 243:Generated_Source\PSoC4/LCD_Seg_1.c **** {0xC0u, 0xAAu, 0x95u, 0x80u, 0x6Au, 0x55u, 0x40u, 0x2Bu, 0x15u, 0x00u},
 244:Generated_Source\PSoC4/LCD_Seg_1.c **** {0x05u, 0x0Au, 0x10u, 0x15u, 0x1Au, 0x1Fu, 0x25u, 0x2Au, 0x2Fu, 0x34u}};
 245:Generated_Source\PSoC4/LCD_Seg_1.c **** static const uint32 LCD_Seg_1_dividersHS[][LCD_Seg_1_CONTRAST_DIVIDERS_NUMBER] = {
 246:Generated_Source\PSoC4/LCD_Seg_1.c **** {0x2EE0u, 0x29ABu, 0x2475u, 0x1F40u, 0x1A0Bu, 0x14D5u, 0x0FA0u, 0x0A6Bu, 0x0535u, 0x0000u},
 247:Generated_Source\PSoC4/LCD_Seg_1.c **** {0x014Du, 0x029Au, 0x03E8u, 0x0535u, 0x0682u, 0x07CFu, 0x091Du, 0x0A6Au, 0x0BB7u, 0x0D04u}};
 248:Generated_Source\PSoC4/LCD_Seg_1.c **** 
 249:Generated_Source\PSoC4/LCD_Seg_1.c **** uint32 LCD_Seg_1_initVar = 0u;
 250:Generated_Source\PSoC4/LCD_Seg_1.c **** static uint32 LCD_Seg_1_modeState = LCD_Seg_1_LCD_MODE;
 251:Generated_Source\PSoC4/LCD_Seg_1.c **** static uint32 LCD_Seg_1_invertState = LCD_Seg_1_STATE_NORMAL;
 252:Generated_Source\PSoC4/LCD_Seg_1.c **** static uint32 LCD_Seg_1_contrastState = LCD_Seg_1_CONTRAST;
 253:Generated_Source\PSoC4/LCD_Seg_1.c **** static uint32 LCD_Seg_1_commons[] = {LCD_Seg_1_Com0};
 254:Generated_Source\PSoC4/LCD_Seg_1.c **** 
 255:Generated_Source\PSoC4/LCD_Seg_1.c **** 
 256:Generated_Source\PSoC4/LCD_Seg_1.c **** /*******************************************************************************
 257:Generated_Source\PSoC4/LCD_Seg_1.c **** * Function Name: LCD_Seg_1_WriteFrameBuffer
 258:Generated_Source\PSoC4/LCD_Seg_1.c **** ********************************************************************************
 259:Generated_Source\PSoC4/LCD_Seg_1.c **** *
ARM GAS  C:\Users\iborg\AppData\Local\Temp\ccRvSWiO.s 			page 6


 260:Generated_Source\PSoC4/LCD_Seg_1.c **** * Summary:
 261:Generated_Source\PSoC4/LCD_Seg_1.c **** *  Sets or clears a particular bit in the frame buffer.
 262:Generated_Source\PSoC4/LCD_Seg_1.c **** *
 263:Generated_Source\PSoC4/LCD_Seg_1.c **** * Parameters:
 264:Generated_Source\PSoC4/LCD_Seg_1.c **** *  reg32 regAddress[]: Frame buffer register address.
 265:Generated_Source\PSoC4/LCD_Seg_1.c **** *  bitNumber : The predefined packed number that points to the bit's location
 266:Generated_Source\PSoC4/LCD_Seg_1.c **** *              in the frame buffer.
 267:Generated_Source\PSoC4/LCD_Seg_1.c **** *  state : Specifies bit state.
 268:Generated_Source\PSoC4/LCD_Seg_1.c **** *
 269:Generated_Source\PSoC4/LCD_Seg_1.c **** * Return:
 270:Generated_Source\PSoC4/LCD_Seg_1.c **** *  None.
 271:Generated_Source\PSoC4/LCD_Seg_1.c **** *
 272:Generated_Source\PSoC4/LCD_Seg_1.c **** *******************************************************************************/
 273:Generated_Source\PSoC4/LCD_Seg_1.c **** static void LCD_Seg_1_WriteFrameBuffer(reg32 regAddr[], uint32 bitNumber, uint32 state)
 274:Generated_Source\PSoC4/LCD_Seg_1.c **** {
  27              		.loc 1 274 0
  28              		.cfi_startproc
  29              		@ args = 0, pretend = 0, frame = 0
  30              		@ frame_needed = 0, uses_anonymous_args = 0
  31              	.LVL0:
  32 0000 70B5     		push	{r4, r5, r6, lr}
  33              		.cfi_def_cfa_offset 16
  34              		.cfi_offset 4, -16
  35              		.cfi_offset 5, -12
  36              		.cfi_offset 6, -8
  37              		.cfi_offset 14, -4
 275:Generated_Source\PSoC4/LCD_Seg_1.c ****     uint32 row;
 276:Generated_Source\PSoC4/LCD_Seg_1.c ****     uint32 port;
 277:Generated_Source\PSoC4/LCD_Seg_1.c ****     uint32 pin;
 278:Generated_Source\PSoC4/LCD_Seg_1.c ****     uint32 mask;
 279:Generated_Source\PSoC4/LCD_Seg_1.c **** 
 280:Generated_Source\PSoC4/LCD_Seg_1.c ****     /* Extract the bit information to locate desired bit in the frame buffer */
 281:Generated_Source\PSoC4/LCD_Seg_1.c ****     row  = LCD_Seg_1_EXTRACT_ROW(bitNumber) % LCD_Seg_1_MAX_BUFF_ROWS;
  38              		.loc 1 281 0
  39 0002 0B0C     		lsrs	r3, r1, #16
  40 0004 0324     		movs	r4, #3
  41 0006 1C40     		ands	r4, r3
  42              	.LVL1:
 282:Generated_Source\PSoC4/LCD_Seg_1.c ****     port = LCD_Seg_1_EXTRACT_PORT(bitNumber) + ((LCD_Seg_1_EXTRACT_ROW(bitNumber) /
  43              		.loc 1 282 0
  44 0008 0E0A     		lsrs	r6, r1, #8
  45 000a FF25     		movs	r5, #255
  46 000c 2E40     		ands	r6, r5
  47 000e 2B40     		ands	r3, r5
  48 0010 9B08     		lsrs	r3, r3, #2
 283:Generated_Source\PSoC4/LCD_Seg_1.c ****            LCD_Seg_1_MAX_BUFF_ROWS) * LCD_Seg_1_DATA_REGS_OFFSET);
  49              		.loc 1 283 0
  50 0012 9B01     		lsls	r3, r3, #6
 282:Generated_Source\PSoC4/LCD_Seg_1.c ****     port = LCD_Seg_1_EXTRACT_PORT(bitNumber) + ((LCD_Seg_1_EXTRACT_ROW(bitNumber) /
  51              		.loc 1 282 0
  52 0014 F318     		adds	r3, r6, r3
  53              	.LVL2:
 284:Generated_Source\PSoC4/LCD_Seg_1.c ****     pin  = LCD_Seg_1_EXTRACT_PIN(bitNumber) * LCD_Seg_1_MAX_BUFF_ROWS;
  54              		.loc 1 284 0
  55 0016 2940     		ands	r1, r5
  56              	.LVL3:
  57 0018 8900     		lsls	r1, r1, #2
ARM GAS  C:\Users\iborg\AppData\Local\Temp\ccRvSWiO.s 			page 7


  58              	.LVL4:
 285:Generated_Source\PSoC4/LCD_Seg_1.c **** 
 286:Generated_Source\PSoC4/LCD_Seg_1.c ****     /* Write new bit value to the frame buffer. */
 287:Generated_Source\PSoC4/LCD_Seg_1.c ****     mask = (uint32)(~((uint32)(LCD_Seg_1_PIXEL_STATE_ON << (pin + row))));
  59              		.loc 1 287 0
  60 001a 6118     		adds	r1, r4, r1
  61              	.LVL5:
  62 001c 0124     		movs	r4, #1
  63              	.LVL6:
  64 001e 2500     		movs	r5, r4
  65              	.LVL7:
  66 0020 8D40     		lsls	r5, r5, r1
  67              	.LVL8:
 288:Generated_Source\PSoC4/LCD_Seg_1.c **** 
 289:Generated_Source\PSoC4/LCD_Seg_1.c ****     regAddr[port] = (regAddr[port] & mask) | (uint32)((state & LCD_Seg_1_PIXEL_STATE_ON) << (pin + 
  68              		.loc 1 289 0
  69 0022 9B00     		lsls	r3, r3, #2
  70              	.LVL9:
  71 0024 C018     		adds	r0, r0, r3
  72              	.LVL10:
  73 0026 0368     		ldr	r3, [r0]
  74 0028 AB43     		bics	r3, r5
  75 002a 2240     		ands	r2, r4
  76              	.LVL11:
  77 002c 8A40     		lsls	r2, r2, r1
  78 002e 1A43     		orrs	r2, r3
  79 0030 0260     		str	r2, [r0]
 290:Generated_Source\PSoC4/LCD_Seg_1.c **** }
  80              		.loc 1 290 0
  81              		@ sp needed
  82              	.LVL12:
  83              	.LVL13:
  84 0032 70BD     		pop	{r4, r5, r6, pc}
  85              		.cfi_endproc
  86              	.LFE0:
  87              		.size	LCD_Seg_1_WriteFrameBuffer, .-LCD_Seg_1_WriteFrameBuffer
  88              		.section	.text.LCD_Seg_1_ReadFrameBuffer,"ax",%progbits
  89              		.align	2
  90              		.code	16
  91              		.thumb_func
  92              		.type	LCD_Seg_1_ReadFrameBuffer, %function
  93              	LCD_Seg_1_ReadFrameBuffer:
  94              	.LFB1:
 291:Generated_Source\PSoC4/LCD_Seg_1.c **** 
 292:Generated_Source\PSoC4/LCD_Seg_1.c **** 
 293:Generated_Source\PSoC4/LCD_Seg_1.c **** /*******************************************************************************
 294:Generated_Source\PSoC4/LCD_Seg_1.c **** * Function Name: LCD_Seg_1_ReadFrameBuffer
 295:Generated_Source\PSoC4/LCD_Seg_1.c **** ********************************************************************************
 296:Generated_Source\PSoC4/LCD_Seg_1.c **** *
 297:Generated_Source\PSoC4/LCD_Seg_1.c **** * Summary:
 298:Generated_Source\PSoC4/LCD_Seg_1.c **** *  Gets state of a particular bit in the frame buffer.
 299:Generated_Source\PSoC4/LCD_Seg_1.c **** *
 300:Generated_Source\PSoC4/LCD_Seg_1.c **** * Parameters:
 301:Generated_Source\PSoC4/LCD_Seg_1.c **** *  reg32 regAddress[]: Frame buffer register address.
 302:Generated_Source\PSoC4/LCD_Seg_1.c **** *  bitNumber : The predefined packed number that points to the bit's location
 303:Generated_Source\PSoC4/LCD_Seg_1.c **** *              in the frame buffer.
 304:Generated_Source\PSoC4/LCD_Seg_1.c **** *
ARM GAS  C:\Users\iborg\AppData\Local\Temp\ccRvSWiO.s 			page 8


 305:Generated_Source\PSoC4/LCD_Seg_1.c **** * Return:
 306:Generated_Source\PSoC4/LCD_Seg_1.c **** *  Returns the current status of the specified bit in the frame buffer.
 307:Generated_Source\PSoC4/LCD_Seg_1.c **** *
 308:Generated_Source\PSoC4/LCD_Seg_1.c **** *******************************************************************************/
 309:Generated_Source\PSoC4/LCD_Seg_1.c **** static uint32 LCD_Seg_1_ReadFrameBuffer(const reg32 regAddr[], uint32 bitNumber)
 310:Generated_Source\PSoC4/LCD_Seg_1.c **** {
  95              		.loc 1 310 0
  96              		.cfi_startproc
  97              		@ args = 0, pretend = 0, frame = 0
  98              		@ frame_needed = 0, uses_anonymous_args = 0
  99              	.LVL14:
 100 0000 30B5     		push	{r4, r5, lr}
 101              		.cfi_def_cfa_offset 12
 102              		.cfi_offset 4, -12
 103              		.cfi_offset 5, -8
 104              		.cfi_offset 14, -4
 311:Generated_Source\PSoC4/LCD_Seg_1.c ****     uint32 row;
 312:Generated_Source\PSoC4/LCD_Seg_1.c ****     uint32 port;
 313:Generated_Source\PSoC4/LCD_Seg_1.c ****     uint32 pin;
 314:Generated_Source\PSoC4/LCD_Seg_1.c ****     uint32 pixelState;
 315:Generated_Source\PSoC4/LCD_Seg_1.c **** 
 316:Generated_Source\PSoC4/LCD_Seg_1.c ****     /* Extract the bit information to locate desired bit in the frame buffer */
 317:Generated_Source\PSoC4/LCD_Seg_1.c ****     row  = LCD_Seg_1_EXTRACT_ROW(bitNumber) % LCD_Seg_1_MAX_BUFF_ROWS;
 105              		.loc 1 317 0
 106 0002 0B0C     		lsrs	r3, r1, #16
 107 0004 0322     		movs	r2, #3
 108 0006 1A40     		ands	r2, r3
 109              	.LVL15:
 318:Generated_Source\PSoC4/LCD_Seg_1.c ****     port = LCD_Seg_1_EXTRACT_PORT(bitNumber) + ((LCD_Seg_1_EXTRACT_ROW(bitNumber) /
 110              		.loc 1 318 0
 111 0008 0D0A     		lsrs	r5, r1, #8
 112 000a FF24     		movs	r4, #255
 113 000c 2540     		ands	r5, r4
 114 000e 2340     		ands	r3, r4
 115 0010 9B08     		lsrs	r3, r3, #2
 319:Generated_Source\PSoC4/LCD_Seg_1.c ****            LCD_Seg_1_MAX_BUFF_ROWS) * LCD_Seg_1_DATA_REGS_OFFSET);
 116              		.loc 1 319 0
 117 0012 9B01     		lsls	r3, r3, #6
 318:Generated_Source\PSoC4/LCD_Seg_1.c ****     port = LCD_Seg_1_EXTRACT_PORT(bitNumber) + ((LCD_Seg_1_EXTRACT_ROW(bitNumber) /
 118              		.loc 1 318 0
 119 0014 EB18     		adds	r3, r5, r3
 120              	.LVL16:
 320:Generated_Source\PSoC4/LCD_Seg_1.c ****     pin  = LCD_Seg_1_EXTRACT_PIN(bitNumber) * LCD_Seg_1_MAX_BUFF_ROWS;
 121              		.loc 1 320 0
 122 0016 2140     		ands	r1, r4
 123              	.LVL17:
 124 0018 8900     		lsls	r1, r1, #2
 125              	.LVL18:
 321:Generated_Source\PSoC4/LCD_Seg_1.c **** 
 322:Generated_Source\PSoC4/LCD_Seg_1.c ****     pixelState = (uint32)(regAddr[port] >> (pin + row)) & LCD_Seg_1_PIXEL_STATE_ON;
 126              		.loc 1 322 0
 127 001a 9B00     		lsls	r3, r3, #2
 128              	.LVL19:
 129 001c C018     		adds	r0, r0, r3
 130              	.LVL20:
 131 001e 0068     		ldr	r0, [r0]
 132 0020 5118     		adds	r1, r2, r1
ARM GAS  C:\Users\iborg\AppData\Local\Temp\ccRvSWiO.s 			page 9


 133              	.LVL21:
 134 0022 C840     		lsrs	r0, r0, r1
 135 0024 0123     		movs	r3, #1
 136 0026 1840     		ands	r0, r3
 137              	.LVL22:
 323:Generated_Source\PSoC4/LCD_Seg_1.c **** 
 324:Generated_Source\PSoC4/LCD_Seg_1.c ****     return(pixelState);
 325:Generated_Source\PSoC4/LCD_Seg_1.c **** }
 138              		.loc 1 325 0
 139              		@ sp needed
 140              	.LVL23:
 141              	.LVL24:
 142 0028 30BD     		pop	{r4, r5, pc}
 143              		.cfi_endproc
 144              	.LFE1:
 145              		.size	LCD_Seg_1_ReadFrameBuffer, .-LCD_Seg_1_ReadFrameBuffer
 146 002a C046     		.section	.text.LCD_Seg_1_Enable,"ax",%progbits
 147              		.align	2
 148              		.global	LCD_Seg_1_Enable
 149              		.code	16
 150              		.thumb_func
 151              		.type	LCD_Seg_1_Enable, %function
 152              	LCD_Seg_1_Enable:
 153              	.LFB3:
 326:Generated_Source\PSoC4/LCD_Seg_1.c **** 
 327:Generated_Source\PSoC4/LCD_Seg_1.c **** 
 328:Generated_Source\PSoC4/LCD_Seg_1.c **** /*******************************************************************************
 329:Generated_Source\PSoC4/LCD_Seg_1.c **** * Function Name: LCD_Seg_1_Init
 330:Generated_Source\PSoC4/LCD_Seg_1.c **** ********************************************************************************
 331:Generated_Source\PSoC4/LCD_Seg_1.c **** *
 332:Generated_Source\PSoC4/LCD_Seg_1.c **** * Summary:
 333:Generated_Source\PSoC4/LCD_Seg_1.c **** *  Initialize/Restore default Segment LCD configuration.
 334:Generated_Source\PSoC4/LCD_Seg_1.c **** *
 335:Generated_Source\PSoC4/LCD_Seg_1.c **** * Parameters:
 336:Generated_Source\PSoC4/LCD_Seg_1.c **** *  None.
 337:Generated_Source\PSoC4/LCD_Seg_1.c **** *
 338:Generated_Source\PSoC4/LCD_Seg_1.c **** * Return:
 339:Generated_Source\PSoC4/LCD_Seg_1.c **** *  None.
 340:Generated_Source\PSoC4/LCD_Seg_1.c **** *
 341:Generated_Source\PSoC4/LCD_Seg_1.c **** * Side Effects:
 342:Generated_Source\PSoC4/LCD_Seg_1.c **** *  Block will be stopped to change settings.
 343:Generated_Source\PSoC4/LCD_Seg_1.c **** *
 344:Generated_Source\PSoC4/LCD_Seg_1.c **** *******************************************************************************/
 345:Generated_Source\PSoC4/LCD_Seg_1.c **** void LCD_Seg_1_Init(void)
 346:Generated_Source\PSoC4/LCD_Seg_1.c **** {
 347:Generated_Source\PSoC4/LCD_Seg_1.c ****     LCD_Seg_1_Stop();
 348:Generated_Source\PSoC4/LCD_Seg_1.c **** 
 349:Generated_Source\PSoC4/LCD_Seg_1.c ****     /* Set sub-frame and dead time dividers */
 350:Generated_Source\PSoC4/LCD_Seg_1.c ****     LCD_Seg_1_DIVIDER_REG = LCD_Seg_1_INIT_DIVIDERS;
 351:Generated_Source\PSoC4/LCD_Seg_1.c **** 
 352:Generated_Source\PSoC4/LCD_Seg_1.c ****     /* Set Configuration Register */
 353:Generated_Source\PSoC4/LCD_Seg_1.c ****     LCD_Seg_1_CONTROL_REG = LCD_Seg_1_INIT_CONTROL;
 354:Generated_Source\PSoC4/LCD_Seg_1.c **** 
 355:Generated_Source\PSoC4/LCD_Seg_1.c ****     /* Need to clear display to start normal work.
 356:Generated_Source\PSoC4/LCD_Seg_1.c ****     *  LCD_Seg_1_ClearDisplay() function initializes Commons in the frame buffer as well.
 357:Generated_Source\PSoC4/LCD_Seg_1.c ****     */
 358:Generated_Source\PSoC4/LCD_Seg_1.c ****     LCD_Seg_1_ClearDisplay();
ARM GAS  C:\Users\iborg\AppData\Local\Temp\ccRvSWiO.s 			page 10


 359:Generated_Source\PSoC4/LCD_Seg_1.c **** }
 360:Generated_Source\PSoC4/LCD_Seg_1.c **** 
 361:Generated_Source\PSoC4/LCD_Seg_1.c **** 
 362:Generated_Source\PSoC4/LCD_Seg_1.c **** /*******************************************************************************
 363:Generated_Source\PSoC4/LCD_Seg_1.c **** * Function Name: LCD_Seg_1_Enable
 364:Generated_Source\PSoC4/LCD_Seg_1.c **** ********************************************************************************
 365:Generated_Source\PSoC4/LCD_Seg_1.c **** *
 366:Generated_Source\PSoC4/LCD_Seg_1.c **** * Summary:
 367:Generated_Source\PSoC4/LCD_Seg_1.c **** *  Enables the Segment LCD.
 368:Generated_Source\PSoC4/LCD_Seg_1.c **** *
 369:Generated_Source\PSoC4/LCD_Seg_1.c **** * Parameters:
 370:Generated_Source\PSoC4/LCD_Seg_1.c **** *  None.
 371:Generated_Source\PSoC4/LCD_Seg_1.c **** *
 372:Generated_Source\PSoC4/LCD_Seg_1.c **** * Return:
 373:Generated_Source\PSoC4/LCD_Seg_1.c **** *  None.
 374:Generated_Source\PSoC4/LCD_Seg_1.c **** *
 375:Generated_Source\PSoC4/LCD_Seg_1.c **** * Global variables:
 376:Generated_Source\PSoC4/LCD_Seg_1.c **** *  LCD_Seg_1_modeState - holds the current LCD speed mode (LS/HS).
 377:Generated_Source\PSoC4/LCD_Seg_1.c **** *
 378:Generated_Source\PSoC4/LCD_Seg_1.c **** *******************************************************************************/
 379:Generated_Source\PSoC4/LCD_Seg_1.c **** void LCD_Seg_1_Enable(void)
 380:Generated_Source\PSoC4/LCD_Seg_1.c **** {
 154              		.loc 1 380 0
 155              		.cfi_startproc
 156              		@ args = 0, pretend = 0, frame = 0
 157              		@ frame_needed = 0, uses_anonymous_args = 0
 158              		@ link register save eliminated.
 381:Generated_Source\PSoC4/LCD_Seg_1.c ****     if (LCD_Seg_1_SPEED_LS == LCD_Seg_1_modeState)
 159              		.loc 1 381 0
 160 0000 094B     		ldr	r3, .L6
 161 0002 1B68     		ldr	r3, [r3]
 162 0004 002B     		cmp	r3, #0
 163 0006 07D1     		bne	.L4
 382:Generated_Source\PSoC4/LCD_Seg_1.c ****     {
 383:Generated_Source\PSoC4/LCD_Seg_1.c ****         LCD_Seg_1_CONTROL_REG = (LCD_Seg_1_CONTROL_REG & ((uint32)(~LCD_Seg_1_ENABLE_MASK)))
 164              		.loc 1 383 0
 165 0008 0849     		ldr	r1, .L6+4
 166 000a 0B68     		ldr	r3, [r1]
 167 000c 0322     		movs	r2, #3
 168 000e 9343     		bics	r3, r2
 384:Generated_Source\PSoC4/LCD_Seg_1.c ****                                        | LCD_Seg_1_LS_EN;
 169              		.loc 1 384 0
 170 0010 023A     		subs	r2, r2, #2
 171 0012 1343     		orrs	r3, r2
 383:Generated_Source\PSoC4/LCD_Seg_1.c ****                                        | LCD_Seg_1_LS_EN;
 172              		.loc 1 383 0
 173 0014 0B60     		str	r3, [r1]
 174 0016 06E0     		b	.L3
 175              	.L4:
 385:Generated_Source\PSoC4/LCD_Seg_1.c ****     }
 386:Generated_Source\PSoC4/LCD_Seg_1.c ****     else /* (LCD_Seg_1_SPEED_HS == LCD_Seg_1_modeState) */
 387:Generated_Source\PSoC4/LCD_Seg_1.c ****     {
 388:Generated_Source\PSoC4/LCD_Seg_1.c ****         LCD_Seg_1_CONTROL_REG = (LCD_Seg_1_CONTROL_REG & ((uint32)(~LCD_Seg_1_ENABLE_MASK)))
 176              		.loc 1 388 0
 177 0018 0449     		ldr	r1, .L6+4
 178 001a 0B68     		ldr	r3, [r1]
 179 001c 0322     		movs	r2, #3
ARM GAS  C:\Users\iborg\AppData\Local\Temp\ccRvSWiO.s 			page 11


 180 001e 9343     		bics	r3, r2
 389:Generated_Source\PSoC4/LCD_Seg_1.c ****                                        | LCD_Seg_1_HS_EN;
 181              		.loc 1 389 0
 182 0020 013A     		subs	r2, r2, #1
 183 0022 1343     		orrs	r3, r2
 388:Generated_Source\PSoC4/LCD_Seg_1.c ****                                        | LCD_Seg_1_HS_EN;
 184              		.loc 1 388 0
 185 0024 0B60     		str	r3, [r1]
 186              	.L3:
 390:Generated_Source\PSoC4/LCD_Seg_1.c ****     }
 391:Generated_Source\PSoC4/LCD_Seg_1.c **** }
 187              		.loc 1 391 0
 188              		@ sp needed
 189 0026 7047     		bx	lr
 190              	.L7:
 191              		.align	2
 192              	.L6:
 193 0028 00000000 		.word	.LANCHOR0
 194 002c 08000940 		.word	1074331656
 195              		.cfi_endproc
 196              	.LFE3:
 197              		.size	LCD_Seg_1_Enable, .-LCD_Seg_1_Enable
 198              		.section	.text.LCD_Seg_1_Stop,"ax",%progbits
 199              		.align	2
 200              		.global	LCD_Seg_1_Stop
 201              		.code	16
 202              		.thumb_func
 203              		.type	LCD_Seg_1_Stop, %function
 204              	LCD_Seg_1_Stop:
 205              	.LFB5:
 392:Generated_Source\PSoC4/LCD_Seg_1.c **** 
 393:Generated_Source\PSoC4/LCD_Seg_1.c **** 
 394:Generated_Source\PSoC4/LCD_Seg_1.c **** /*******************************************************************************
 395:Generated_Source\PSoC4/LCD_Seg_1.c **** * Function Name: LCD_Seg_1_Start
 396:Generated_Source\PSoC4/LCD_Seg_1.c **** ********************************************************************************
 397:Generated_Source\PSoC4/LCD_Seg_1.c **** *
 398:Generated_Source\PSoC4/LCD_Seg_1.c **** * Summary:
 399:Generated_Source\PSoC4/LCD_Seg_1.c **** *  Initialize the Segment LCD with default customizer values and enables the
 400:Generated_Source\PSoC4/LCD_Seg_1.c **** *  Segment LCD.
 401:Generated_Source\PSoC4/LCD_Seg_1.c **** *
 402:Generated_Source\PSoC4/LCD_Seg_1.c **** * Parameters:
 403:Generated_Source\PSoC4/LCD_Seg_1.c **** *  None.
 404:Generated_Source\PSoC4/LCD_Seg_1.c **** *
 405:Generated_Source\PSoC4/LCD_Seg_1.c **** * Return:
 406:Generated_Source\PSoC4/LCD_Seg_1.c **** *  None.
 407:Generated_Source\PSoC4/LCD_Seg_1.c **** *
 408:Generated_Source\PSoC4/LCD_Seg_1.c **** * Global variables:
 409:Generated_Source\PSoC4/LCD_Seg_1.c **** *  LCD_Seg_1_initVar - is used to indicate initial configuration of
 410:Generated_Source\PSoC4/LCD_Seg_1.c **** *  this component. The variable is initialized to zero and set to 1 the
 411:Generated_Source\PSoC4/LCD_Seg_1.c **** *  first time LCD_Seg_1_Start() is called. This allows for component
 412:Generated_Source\PSoC4/LCD_Seg_1.c **** *  initialization without re-initialization in all subsequent calls to the
 413:Generated_Source\PSoC4/LCD_Seg_1.c **** *  LCD_Seg_1_Start() routine.
 414:Generated_Source\PSoC4/LCD_Seg_1.c **** *
 415:Generated_Source\PSoC4/LCD_Seg_1.c **** *******************************************************************************/
 416:Generated_Source\PSoC4/LCD_Seg_1.c **** void LCD_Seg_1_Start(void)
 417:Generated_Source\PSoC4/LCD_Seg_1.c **** {
 418:Generated_Source\PSoC4/LCD_Seg_1.c ****     /* If not Initialized then initialize all required hardware and software */
ARM GAS  C:\Users\iborg\AppData\Local\Temp\ccRvSWiO.s 			page 12


 419:Generated_Source\PSoC4/LCD_Seg_1.c ****     if (LCD_Seg_1_initVar == 0u)
 420:Generated_Source\PSoC4/LCD_Seg_1.c ****     {
 421:Generated_Source\PSoC4/LCD_Seg_1.c ****         LCD_Seg_1_initVar = 1u;
 422:Generated_Source\PSoC4/LCD_Seg_1.c ****         LCD_Seg_1_Init();
 423:Generated_Source\PSoC4/LCD_Seg_1.c ****     }
 424:Generated_Source\PSoC4/LCD_Seg_1.c **** 
 425:Generated_Source\PSoC4/LCD_Seg_1.c ****     LCD_Seg_1_Enable();
 426:Generated_Source\PSoC4/LCD_Seg_1.c **** }
 427:Generated_Source\PSoC4/LCD_Seg_1.c **** 
 428:Generated_Source\PSoC4/LCD_Seg_1.c **** 
 429:Generated_Source\PSoC4/LCD_Seg_1.c **** /*******************************************************************************
 430:Generated_Source\PSoC4/LCD_Seg_1.c **** * Function Name: LCD_Seg_1_Stop
 431:Generated_Source\PSoC4/LCD_Seg_1.c **** ********************************************************************************
 432:Generated_Source\PSoC4/LCD_Seg_1.c **** *
 433:Generated_Source\PSoC4/LCD_Seg_1.c **** * Summary:
 434:Generated_Source\PSoC4/LCD_Seg_1.c **** *  Disables the Segment LCD.
 435:Generated_Source\PSoC4/LCD_Seg_1.c **** *
 436:Generated_Source\PSoC4/LCD_Seg_1.c **** * Parameters:
 437:Generated_Source\PSoC4/LCD_Seg_1.c **** *  None.
 438:Generated_Source\PSoC4/LCD_Seg_1.c **** *
 439:Generated_Source\PSoC4/LCD_Seg_1.c **** * Return:
 440:Generated_Source\PSoC4/LCD_Seg_1.c **** *  None.
 441:Generated_Source\PSoC4/LCD_Seg_1.c **** *
 442:Generated_Source\PSoC4/LCD_Seg_1.c **** *******************************************************************************/
 443:Generated_Source\PSoC4/LCD_Seg_1.c **** void LCD_Seg_1_Stop(void)
 444:Generated_Source\PSoC4/LCD_Seg_1.c **** {
 206              		.loc 1 444 0
 207              		.cfi_startproc
 208              		@ args = 0, pretend = 0, frame = 0
 209              		@ frame_needed = 0, uses_anonymous_args = 0
 210              		@ link register save eliminated.
 445:Generated_Source\PSoC4/LCD_Seg_1.c ****     LCD_Seg_1_CONTROL_REG &= (uint32)(~LCD_Seg_1_ENABLE_MASK);
 211              		.loc 1 445 0
 212 0000 024A     		ldr	r2, .L9
 213 0002 1368     		ldr	r3, [r2]
 214 0004 0321     		movs	r1, #3
 215 0006 8B43     		bics	r3, r1
 216 0008 1360     		str	r3, [r2]
 446:Generated_Source\PSoC4/LCD_Seg_1.c **** }
 217              		.loc 1 446 0
 218              		@ sp needed
 219 000a 7047     		bx	lr
 220              	.L10:
 221              		.align	2
 222              	.L9:
 223 000c 08000940 		.word	1074331656
 224              		.cfi_endproc
 225              	.LFE5:
 226              		.size	LCD_Seg_1_Stop, .-LCD_Seg_1_Stop
 227              		.global	__aeabi_uidiv
 228              		.section	.text.LCD_Seg_1_SetSpeedMode,"ax",%progbits
 229              		.align	2
 230              		.global	LCD_Seg_1_SetSpeedMode
 231              		.code	16
 232              		.thumb_func
 233              		.type	LCD_Seg_1_SetSpeedMode, %function
 234              	LCD_Seg_1_SetSpeedMode:
ARM GAS  C:\Users\iborg\AppData\Local\Temp\ccRvSWiO.s 			page 13


 235              	.LFB6:
 447:Generated_Source\PSoC4/LCD_Seg_1.c **** 
 448:Generated_Source\PSoC4/LCD_Seg_1.c **** 
 449:Generated_Source\PSoC4/LCD_Seg_1.c **** /*******************************************************************************
 450:Generated_Source\PSoC4/LCD_Seg_1.c **** * Function Name: LCD_Seg_1_SetSpeedMode
 451:Generated_Source\PSoC4/LCD_Seg_1.c **** ********************************************************************************
 452:Generated_Source\PSoC4/LCD_Seg_1.c **** *
 453:Generated_Source\PSoC4/LCD_Seg_1.c **** * Summary:
 454:Generated_Source\PSoC4/LCD_Seg_1.c **** *  Sets HS or LS LCD speed mode.
 455:Generated_Source\PSoC4/LCD_Seg_1.c **** *
 456:Generated_Source\PSoC4/LCD_Seg_1.c **** * Parameters:
 457:Generated_Source\PSoC4/LCD_Seg_1.c **** *  mode : Sets the mode of the LCD clock speed operation:
 458:Generated_Source\PSoC4/LCD_Seg_1.c **** *    Define                         Description
 459:Generated_Source\PSoC4/LCD_Seg_1.c **** *     LCD_Seg_1_SPEED_LS      Low Speed mode.
 460:Generated_Source\PSoC4/LCD_Seg_1.c **** *     LCD_Seg_1_SPEED_HS      High Speed mode.
 461:Generated_Source\PSoC4/LCD_Seg_1.c **** *
 462:Generated_Source\PSoC4/LCD_Seg_1.c **** * Return:
 463:Generated_Source\PSoC4/LCD_Seg_1.c **** *  None.
 464:Generated_Source\PSoC4/LCD_Seg_1.c **** *
 465:Generated_Source\PSoC4/LCD_Seg_1.c **** * Global variables:
 466:Generated_Source\PSoC4/LCD_Seg_1.c **** *  LCD_Seg_1_modeState - holds the current LCD speed mode (LS/HS).
 467:Generated_Source\PSoC4/LCD_Seg_1.c **** *  LCD_Seg_1_contrastState - holds the current LCD contrast.
 468:Generated_Source\PSoC4/LCD_Seg_1.c **** *
 469:Generated_Source\PSoC4/LCD_Seg_1.c **** *******************************************************************************/
 470:Generated_Source\PSoC4/LCD_Seg_1.c **** void LCD_Seg_1_SetSpeedMode(uint32 mode)
 471:Generated_Source\PSoC4/LCD_Seg_1.c **** {
 236              		.loc 1 471 0
 237              		.cfi_startproc
 238              		@ args = 0, pretend = 0, frame = 0
 239              		@ frame_needed = 0, uses_anonymous_args = 0
 240              	.LVL25:
 241 0000 70B5     		push	{r4, r5, r6, lr}
 242              		.cfi_def_cfa_offset 16
 243              		.cfi_offset 4, -16
 244              		.cfi_offset 5, -12
 245              		.cfi_offset 6, -8
 246              		.cfi_offset 14, -4
 247 0002 0400     		movs	r4, r0
 472:Generated_Source\PSoC4/LCD_Seg_1.c ****     uint32 contrast = (LCD_Seg_1_contrastState / 10u) - 1u;
 248              		.loc 1 472 0
 249 0004 1A4D     		ldr	r5, .L14
 250 0006 0A21     		movs	r1, #10
 251 0008 6868     		ldr	r0, [r5, #4]
 252              	.LVL26:
 253 000a FFF7FEFF 		bl	__aeabi_uidiv
 254              	.LVL27:
 255 000e 0138     		subs	r0, r0, #1
 256              	.LVL28:
 473:Generated_Source\PSoC4/LCD_Seg_1.c **** 
 474:Generated_Source\PSoC4/LCD_Seg_1.c ****     if (LCD_Seg_1_modeState != mode)
 257              		.loc 1 474 0
 258 0010 2B68     		ldr	r3, [r5]
 259 0012 A342     		cmp	r3, r4
 260 0014 2AD0     		beq	.L11
 475:Generated_Source\PSoC4/LCD_Seg_1.c ****     {
 476:Generated_Source\PSoC4/LCD_Seg_1.c ****         LCD_Seg_1_CONTROL_REG = (LCD_Seg_1_CONTROL_REG & ((uint32)(~LCD_Seg_1_MODE)))
 261              		.loc 1 476 0
ARM GAS  C:\Users\iborg\AppData\Local\Temp\ccRvSWiO.s 			page 14


 262 0016 174D     		ldr	r5, .L14+4
 263 0018 2968     		ldr	r1, [r5]
 264 001a 0423     		movs	r3, #4
 265 001c 9943     		bics	r1, r3
 477:Generated_Source\PSoC4/LCD_Seg_1.c ****                                        | (((uint32)(mode  << LCD_Seg_1_MODE_SHIFT)) & LCD_Seg_1_MOD
 266              		.loc 1 477 0
 267 001e A200     		lsls	r2, r4, #2
 268 0020 1340     		ands	r3, r2
 269 0022 0B43     		orrs	r3, r1
 476:Generated_Source\PSoC4/LCD_Seg_1.c ****                                        | (((uint32)(mode  << LCD_Seg_1_MODE_SHIFT)) & LCD_Seg_1_MOD
 270              		.loc 1 476 0
 271 0024 2B60     		str	r3, [r5]
 478:Generated_Source\PSoC4/LCD_Seg_1.c **** 
 479:Generated_Source\PSoC4/LCD_Seg_1.c ****         if (LCD_Seg_1_SPEED_LS == mode)
 272              		.loc 1 479 0
 273 0026 002C     		cmp	r4, #0
 274 0028 0FD1     		bne	.L13
 480:Generated_Source\PSoC4/LCD_Seg_1.c ****         {
 481:Generated_Source\PSoC4/LCD_Seg_1.c ****             /* Set sub-frame and dead time dividers */
 482:Generated_Source\PSoC4/LCD_Seg_1.c ****             LCD_Seg_1_DIVIDER_REG = (LCD_Seg_1_DIVIDER_REG & ((uint32)(~LCD_Seg_1_DIVIDER_MASK)))
 275              		.loc 1 482 0
 276 002a 134A     		ldr	r2, .L14+8
 277 002c 1368     		ldr	r3, [r2]
 483:Generated_Source\PSoC4/LCD_Seg_1.c ****                             | LCD_Seg_1_dividersLS[LCD_Seg_1_SUBFR_DIVS][contrast]
 278              		.loc 1 483 0
 279 002e 1349     		ldr	r1, .L14+12
 280 0030 0300     		movs	r3, r0
 281 0032 0A33     		adds	r3, r3, #10
 282 0034 9B00     		lsls	r3, r3, #2
 283 0036 5C58     		ldr	r4, [r3, r1]
 284              	.LVL29:
 484:Generated_Source\PSoC4/LCD_Seg_1.c ****                             | ((uint32)((uint32)LCD_Seg_1_dividersLS[LCD_Seg_1_DEAD_DIVS][contrast]
 285              		.loc 1 484 0
 286 0038 8000     		lsls	r0, r0, #2
 287              	.LVL30:
 288 003a 4358     		ldr	r3, [r0, r1]
 289 003c 1B04     		lsls	r3, r3, #16
 290 003e 2343     		orrs	r3, r4
 482:Generated_Source\PSoC4/LCD_Seg_1.c ****                             | LCD_Seg_1_dividersLS[LCD_Seg_1_SUBFR_DIVS][contrast]
 291              		.loc 1 482 0
 292 0040 1360     		str	r3, [r2]
 485:Generated_Source\PSoC4/LCD_Seg_1.c ****                                                 LCD_Seg_1_DEAD_DIV_MASK_SHIFT));
 486:Generated_Source\PSoC4/LCD_Seg_1.c **** 
 487:Generated_Source\PSoC4/LCD_Seg_1.c ****             LCD_Seg_1_modeState = LCD_Seg_1_SPEED_LS;
 293              		.loc 1 487 0
 294 0042 0022     		movs	r2, #0
 295 0044 0A4B     		ldr	r3, .L14
 296 0046 1A60     		str	r2, [r3]
 297 0048 10E0     		b	.L11
 298              	.LVL31:
 299              	.L13:
 488:Generated_Source\PSoC4/LCD_Seg_1.c ****         }
 489:Generated_Source\PSoC4/LCD_Seg_1.c ****         else /* (LCD_Seg_1_SPEED_HS == mode) */
 490:Generated_Source\PSoC4/LCD_Seg_1.c ****         {
 491:Generated_Source\PSoC4/LCD_Seg_1.c ****             /* Set sub-frame and dead time dividers */
 492:Generated_Source\PSoC4/LCD_Seg_1.c ****             LCD_Seg_1_DIVIDER_REG = (LCD_Seg_1_DIVIDER_REG & ((uint32)(~LCD_Seg_1_DIVIDER_MASK)))
 300              		.loc 1 492 0
ARM GAS  C:\Users\iborg\AppData\Local\Temp\ccRvSWiO.s 			page 15


 301 004a 0B4A     		ldr	r2, .L14+8
 302 004c 1368     		ldr	r3, [r2]
 493:Generated_Source\PSoC4/LCD_Seg_1.c ****                             | LCD_Seg_1_dividersHS[LCD_Seg_1_SUBFR_DIVS][contrast]
 303              		.loc 1 493 0
 304 004e 0B49     		ldr	r1, .L14+12
 305 0050 0300     		movs	r3, r0
 306 0052 0A33     		adds	r3, r3, #10
 307 0054 9B00     		lsls	r3, r3, #2
 308 0056 CB18     		adds	r3, r1, r3
 309 0058 1C6D     		ldr	r4, [r3, #80]
 310              	.LVL32:
 494:Generated_Source\PSoC4/LCD_Seg_1.c ****                             | ((uint32)((uint32)LCD_Seg_1_dividersHS[LCD_Seg_1_DEAD_DIVS][contrast]
 311              		.loc 1 494 0
 312 005a 8000     		lsls	r0, r0, #2
 313              	.LVL33:
 314 005c 0818     		adds	r0, r1, r0
 315 005e 036D     		ldr	r3, [r0, #80]
 316 0060 1B04     		lsls	r3, r3, #16
 317 0062 2343     		orrs	r3, r4
 492:Generated_Source\PSoC4/LCD_Seg_1.c ****                             | LCD_Seg_1_dividersHS[LCD_Seg_1_SUBFR_DIVS][contrast]
 318              		.loc 1 492 0
 319 0064 1360     		str	r3, [r2]
 495:Generated_Source\PSoC4/LCD_Seg_1.c ****                                                 LCD_Seg_1_DEAD_DIV_MASK_SHIFT));
 496:Generated_Source\PSoC4/LCD_Seg_1.c **** 
 497:Generated_Source\PSoC4/LCD_Seg_1.c ****             LCD_Seg_1_modeState = LCD_Seg_1_SPEED_HS;
 320              		.loc 1 497 0
 321 0066 0122     		movs	r2, #1
 322 0068 014B     		ldr	r3, .L14
 323 006a 1A60     		str	r2, [r3]
 324              	.L11:
 498:Generated_Source\PSoC4/LCD_Seg_1.c ****         }
 499:Generated_Source\PSoC4/LCD_Seg_1.c ****     }
 500:Generated_Source\PSoC4/LCD_Seg_1.c **** }
 325              		.loc 1 500 0
 326              		@ sp needed
 327 006c 70BD     		pop	{r4, r5, r6, pc}
 328              	.L15:
 329 006e C046     		.align	2
 330              	.L14:
 331 0070 00000000 		.word	.LANCHOR0
 332 0074 08000940 		.word	1074331656
 333 0078 04000940 		.word	1074331652
 334 007c 00000000 		.word	.LANCHOR1
 335              		.cfi_endproc
 336              	.LFE6:
 337              		.size	LCD_Seg_1_SetSpeedMode, .-LCD_Seg_1_SetSpeedMode
 338              		.section	.text.LCD_Seg_1_SetOperationMode,"ax",%progbits
 339              		.align	2
 340              		.global	LCD_Seg_1_SetOperationMode
 341              		.code	16
 342              		.thumb_func
 343              		.type	LCD_Seg_1_SetOperationMode, %function
 344              	LCD_Seg_1_SetOperationMode:
 345              	.LFB7:
 501:Generated_Source\PSoC4/LCD_Seg_1.c **** 
 502:Generated_Source\PSoC4/LCD_Seg_1.c **** 
 503:Generated_Source\PSoC4/LCD_Seg_1.c **** /*******************************************************************************
ARM GAS  C:\Users\iborg\AppData\Local\Temp\ccRvSWiO.s 			page 16


 504:Generated_Source\PSoC4/LCD_Seg_1.c **** * Function Name: LCD_Seg_1_SetOperationMode
 505:Generated_Source\PSoC4/LCD_Seg_1.c **** ********************************************************************************
 506:Generated_Source\PSoC4/LCD_Seg_1.c **** *
 507:Generated_Source\PSoC4/LCD_Seg_1.c **** * Summary:
 508:Generated_Source\PSoC4/LCD_Seg_1.c **** *  Sets PWM or Digital Correlation LCD operation mode.
 509:Generated_Source\PSoC4/LCD_Seg_1.c **** *
 510:Generated_Source\PSoC4/LCD_Seg_1.c **** * Parameters:
 511:Generated_Source\PSoC4/LCD_Seg_1.c **** *  mode : Sets the mode of the LCD operation:
 512:Generated_Source\PSoC4/LCD_Seg_1.c **** *    Define                         Description
 513:Generated_Source\PSoC4/LCD_Seg_1.c **** *     LCD_Seg_1_MODE_PWM      PWM operation mode.
 514:Generated_Source\PSoC4/LCD_Seg_1.c **** *     LCD_Seg_1_MODE_DIG_COR  Digital Correlation mode.
 515:Generated_Source\PSoC4/LCD_Seg_1.c **** *
 516:Generated_Source\PSoC4/LCD_Seg_1.c **** * Return:
 517:Generated_Source\PSoC4/LCD_Seg_1.c **** *  None.
 518:Generated_Source\PSoC4/LCD_Seg_1.c **** *
 519:Generated_Source\PSoC4/LCD_Seg_1.c **** *******************************************************************************/
 520:Generated_Source\PSoC4/LCD_Seg_1.c **** void LCD_Seg_1_SetOperationMode(uint32 mode)
 521:Generated_Source\PSoC4/LCD_Seg_1.c **** {
 346              		.loc 1 521 0
 347              		.cfi_startproc
 348              		@ args = 0, pretend = 0, frame = 0
 349              		@ frame_needed = 0, uses_anonymous_args = 0
 350              		@ link register save eliminated.
 351              	.LVL34:
 352 0000 0300     		movs	r3, r0
 522:Generated_Source\PSoC4/LCD_Seg_1.c ****     LCD_Seg_1_CONTROL_REG = (LCD_Seg_1_CONTROL_REG & ((uint32)(~LCD_Seg_1_OP_MODE)))
 353              		.loc 1 522 0
 354 0002 0449     		ldr	r1, .L17
 355 0004 0A68     		ldr	r2, [r1]
 356 0006 1020     		movs	r0, #16
 357              	.LVL35:
 358 0008 8243     		bics	r2, r0
 523:Generated_Source\PSoC4/LCD_Seg_1.c ****                                    | (((uint32)(mode << LCD_Seg_1_OP_MODE_SHIFT)) & LCD_Seg_1_OP_MO
 359              		.loc 1 523 0
 360 000a 1B01     		lsls	r3, r3, #4
 361              	.LVL36:
 362 000c 1840     		ands	r0, r3
 363 000e 1043     		orrs	r0, r2
 522:Generated_Source\PSoC4/LCD_Seg_1.c ****     LCD_Seg_1_CONTROL_REG = (LCD_Seg_1_CONTROL_REG & ((uint32)(~LCD_Seg_1_OP_MODE)))
 364              		.loc 1 522 0
 365 0010 0860     		str	r0, [r1]
 524:Generated_Source\PSoC4/LCD_Seg_1.c **** }
 366              		.loc 1 524 0
 367              		@ sp needed
 368 0012 7047     		bx	lr
 369              	.L18:
 370              		.align	2
 371              	.L17:
 372 0014 08000940 		.word	1074331656
 373              		.cfi_endproc
 374              	.LFE7:
 375              		.size	LCD_Seg_1_SetOperationMode, .-LCD_Seg_1_SetOperationMode
 376              		.section	.text.LCD_Seg_1_SetBiasType,"ax",%progbits
 377              		.align	2
 378              		.global	LCD_Seg_1_SetBiasType
 379              		.code	16
 380              		.thumb_func
ARM GAS  C:\Users\iborg\AppData\Local\Temp\ccRvSWiO.s 			page 17


 381              		.type	LCD_Seg_1_SetBiasType, %function
 382              	LCD_Seg_1_SetBiasType:
 383              	.LFB8:
 525:Generated_Source\PSoC4/LCD_Seg_1.c **** 
 526:Generated_Source\PSoC4/LCD_Seg_1.c **** 
 527:Generated_Source\PSoC4/LCD_Seg_1.c **** /*******************************************************************************
 528:Generated_Source\PSoC4/LCD_Seg_1.c **** * Function Name: LCD_Seg_1_SetBiasType
 529:Generated_Source\PSoC4/LCD_Seg_1.c **** ********************************************************************************
 530:Generated_Source\PSoC4/LCD_Seg_1.c **** *
 531:Generated_Source\PSoC4/LCD_Seg_1.c **** * Summary:
 532:Generated_Source\PSoC4/LCD_Seg_1.c **** *  Sets bias type for PWM operation mode.
 533:Generated_Source\PSoC4/LCD_Seg_1.c **** *
 534:Generated_Source\PSoC4/LCD_Seg_1.c **** * Parameters:
 535:Generated_Source\PSoC4/LCD_Seg_1.c **** *  bias : Sets the bias type for PWM operation mode:
 536:Generated_Source\PSoC4/LCD_Seg_1.c **** *    Define                         Description
 537:Generated_Source\PSoC4/LCD_Seg_1.c **** *     LCD_Seg_1_BIAS_1_2      1/2 Bias.
 538:Generated_Source\PSoC4/LCD_Seg_1.c **** *     LCD_Seg_1_BIAS_1_3      1/3 Bias.
 539:Generated_Source\PSoC4/LCD_Seg_1.c **** *     LCD_Seg_1_BIAS_1_4      1/4 Bias. Not supported in Low Speed mode.
 540:Generated_Source\PSoC4/LCD_Seg_1.c **** *     LCD_Seg_1_BIAS_1_5      1/5 Bias. Not supported in Low Speed mode.
 541:Generated_Source\PSoC4/LCD_Seg_1.c **** *
 542:Generated_Source\PSoC4/LCD_Seg_1.c **** * Return:
 543:Generated_Source\PSoC4/LCD_Seg_1.c **** *  None.
 544:Generated_Source\PSoC4/LCD_Seg_1.c **** *
 545:Generated_Source\PSoC4/LCD_Seg_1.c **** *******************************************************************************/
 546:Generated_Source\PSoC4/LCD_Seg_1.c **** void LCD_Seg_1_SetBiasType(uint32 bias)
 547:Generated_Source\PSoC4/LCD_Seg_1.c **** {
 384              		.loc 1 547 0
 385              		.cfi_startproc
 386              		@ args = 0, pretend = 0, frame = 0
 387              		@ frame_needed = 0, uses_anonymous_args = 0
 388              		@ link register save eliminated.
 389              	.LVL37:
 390 0000 0300     		movs	r3, r0
 548:Generated_Source\PSoC4/LCD_Seg_1.c ****     LCD_Seg_1_CONTROL_REG = (LCD_Seg_1_CONTROL_REG & ((uint32)(~LCD_Seg_1_BIAS_MASK)))
 391              		.loc 1 548 0
 392 0002 0449     		ldr	r1, .L20
 393 0004 0A68     		ldr	r2, [r1]
 394 0006 6020     		movs	r0, #96
 395              	.LVL38:
 396 0008 8243     		bics	r2, r0
 549:Generated_Source\PSoC4/LCD_Seg_1.c ****                                  | (((uint32)(bias << LCD_Seg_1_BIAS_MASK_SHIFT)) & LCD_Seg_1_BIAS_
 397              		.loc 1 549 0
 398 000a 5B01     		lsls	r3, r3, #5
 399              	.LVL39:
 400 000c 1840     		ands	r0, r3
 401 000e 1043     		orrs	r0, r2
 548:Generated_Source\PSoC4/LCD_Seg_1.c ****     LCD_Seg_1_CONTROL_REG = (LCD_Seg_1_CONTROL_REG & ((uint32)(~LCD_Seg_1_BIAS_MASK)))
 402              		.loc 1 548 0
 403 0010 0860     		str	r0, [r1]
 550:Generated_Source\PSoC4/LCD_Seg_1.c **** }
 404              		.loc 1 550 0
 405              		@ sp needed
 406 0012 7047     		bx	lr
 407              	.L21:
 408              		.align	2
 409              	.L20:
 410 0014 08000940 		.word	1074331656
ARM GAS  C:\Users\iborg\AppData\Local\Temp\ccRvSWiO.s 			page 18


 411              		.cfi_endproc
 412              	.LFE8:
 413              		.size	LCD_Seg_1_SetBiasType, .-LCD_Seg_1_SetBiasType
 414              		.section	.text.LCD_Seg_1_SetWaveformType,"ax",%progbits
 415              		.align	2
 416              		.global	LCD_Seg_1_SetWaveformType
 417              		.code	16
 418              		.thumb_func
 419              		.type	LCD_Seg_1_SetWaveformType, %function
 420              	LCD_Seg_1_SetWaveformType:
 421              	.LFB9:
 551:Generated_Source\PSoC4/LCD_Seg_1.c **** 
 552:Generated_Source\PSoC4/LCD_Seg_1.c **** 
 553:Generated_Source\PSoC4/LCD_Seg_1.c **** /*******************************************************************************
 554:Generated_Source\PSoC4/LCD_Seg_1.c **** * Function Name: LCD_Seg_1_SetWaveformType
 555:Generated_Source\PSoC4/LCD_Seg_1.c **** ********************************************************************************
 556:Generated_Source\PSoC4/LCD_Seg_1.c **** *
 557:Generated_Source\PSoC4/LCD_Seg_1.c **** * Summary:
 558:Generated_Source\PSoC4/LCD_Seg_1.c **** *  Sets the LCD driving Waveform Type.
 559:Generated_Source\PSoC4/LCD_Seg_1.c **** *
 560:Generated_Source\PSoC4/LCD_Seg_1.c **** * Parameters:
 561:Generated_Source\PSoC4/LCD_Seg_1.c **** *  type : Sets the Waveform Type:
 562:Generated_Source\PSoC4/LCD_Seg_1.c **** *    Define                         Description
 563:Generated_Source\PSoC4/LCD_Seg_1.c **** *     LCD_Seg_1_TYPE_A        Waveform type A.
 564:Generated_Source\PSoC4/LCD_Seg_1.c **** *     LCD_Seg_1_TYPE_B        Waveform type B.
 565:Generated_Source\PSoC4/LCD_Seg_1.c **** *
 566:Generated_Source\PSoC4/LCD_Seg_1.c **** * Return:
 567:Generated_Source\PSoC4/LCD_Seg_1.c **** *  None.
 568:Generated_Source\PSoC4/LCD_Seg_1.c **** *
 569:Generated_Source\PSoC4/LCD_Seg_1.c **** *******************************************************************************/
 570:Generated_Source\PSoC4/LCD_Seg_1.c **** void LCD_Seg_1_SetWaveformType(uint32 type)
 571:Generated_Source\PSoC4/LCD_Seg_1.c **** {
 422              		.loc 1 571 0
 423              		.cfi_startproc
 424              		@ args = 0, pretend = 0, frame = 0
 425              		@ frame_needed = 0, uses_anonymous_args = 0
 426              		@ link register save eliminated.
 427              	.LVL40:
 428 0000 0300     		movs	r3, r0
 572:Generated_Source\PSoC4/LCD_Seg_1.c ****     LCD_Seg_1_CONTROL_REG = (LCD_Seg_1_CONTROL_REG & ((uint32)(~LCD_Seg_1_TYPE)))
 429              		.loc 1 572 0
 430 0002 0449     		ldr	r1, .L23
 431 0004 0A68     		ldr	r2, [r1]
 432 0006 0820     		movs	r0, #8
 433              	.LVL41:
 434 0008 8243     		bics	r2, r0
 573:Generated_Source\PSoC4/LCD_Seg_1.c ****                                    | (((uint32)(type << LCD_Seg_1_TYPE_SHIFT)) & LCD_Seg_1_TYPE);
 435              		.loc 1 573 0
 436 000a DB00     		lsls	r3, r3, #3
 437              	.LVL42:
 438 000c 1840     		ands	r0, r3
 439 000e 1043     		orrs	r0, r2
 572:Generated_Source\PSoC4/LCD_Seg_1.c ****     LCD_Seg_1_CONTROL_REG = (LCD_Seg_1_CONTROL_REG & ((uint32)(~LCD_Seg_1_TYPE)))
 440              		.loc 1 572 0
 441 0010 0860     		str	r0, [r1]
 574:Generated_Source\PSoC4/LCD_Seg_1.c **** }
 442              		.loc 1 574 0
ARM GAS  C:\Users\iborg\AppData\Local\Temp\ccRvSWiO.s 			page 19


 443              		@ sp needed
 444 0012 7047     		bx	lr
 445              	.L24:
 446              		.align	2
 447              	.L23:
 448 0014 08000940 		.word	1074331656
 449              		.cfi_endproc
 450              	.LFE9:
 451              		.size	LCD_Seg_1_SetWaveformType, .-LCD_Seg_1_SetWaveformType
 452              		.section	.text.LCD_Seg_1_SetContrast,"ax",%progbits
 453              		.align	2
 454              		.global	LCD_Seg_1_SetContrast
 455              		.code	16
 456              		.thumb_func
 457              		.type	LCD_Seg_1_SetContrast, %function
 458              	LCD_Seg_1_SetContrast:
 459              	.LFB10:
 575:Generated_Source\PSoC4/LCD_Seg_1.c **** 
 576:Generated_Source\PSoC4/LCD_Seg_1.c **** 
 577:Generated_Source\PSoC4/LCD_Seg_1.c **** /*******************************************************************************
 578:Generated_Source\PSoC4/LCD_Seg_1.c **** * Function Name: LCD_Seg_1_SetContrast
 579:Generated_Source\PSoC4/LCD_Seg_1.c **** ********************************************************************************
 580:Generated_Source\PSoC4/LCD_Seg_1.c **** *
 581:Generated_Source\PSoC4/LCD_Seg_1.c **** * Summary:
 582:Generated_Source\PSoC4/LCD_Seg_1.c **** *  Sets the contrast control using "Dead Period" digital modulation.
 583:Generated_Source\PSoC4/LCD_Seg_1.c **** *
 584:Generated_Source\PSoC4/LCD_Seg_1.c **** * Parameters:
 585:Generated_Source\PSoC4/LCD_Seg_1.c **** *  contrast : Sets the contrast for the LCD glass in percentage. Valid range
 586:Generated_Source\PSoC4/LCD_Seg_1.c **** *             from 10% to 100% in 10% increments. Valid range can be restricted
 587:Generated_Source\PSoC4/LCD_Seg_1.c **** *             because of dividers size (for LS mode 8 bit and for HS mode 16
 588:Generated_Source\PSoC4/LCD_Seg_1.c **** *             bit). For greater frequencies, certain ratios between contrast and
 589:Generated_Source\PSoC4/LCD_Seg_1.c **** *             frame rate can not be achieved.
 590:Generated_Source\PSoC4/LCD_Seg_1.c **** *
 591:Generated_Source\PSoC4/LCD_Seg_1.c **** * Return:
 592:Generated_Source\PSoC4/LCD_Seg_1.c **** *  Pass or fail based on a validity check of the contrast value.
 593:Generated_Source\PSoC4/LCD_Seg_1.c **** *    Define                     Description
 594:Generated_Source\PSoC4/LCD_Seg_1.c **** *     CYRET_SUCCESS              Function completed successfully.
 595:Generated_Source\PSoC4/LCD_Seg_1.c **** *     CYRET_BAD_PARAM            Evaluation of contrast parameter is failed.
 596:Generated_Source\PSoC4/LCD_Seg_1.c **** *
 597:Generated_Source\PSoC4/LCD_Seg_1.c **** * Global variables:
 598:Generated_Source\PSoC4/LCD_Seg_1.c **** *  LCD_Seg_1_modeState - holds the current LCD speed mode (LS/HS).
 599:Generated_Source\PSoC4/LCD_Seg_1.c **** *  LCD_Seg_1_contrastState - holds the current LCD contrast.
 600:Generated_Source\PSoC4/LCD_Seg_1.c **** *
 601:Generated_Source\PSoC4/LCD_Seg_1.c **** *******************************************************************************/
 602:Generated_Source\PSoC4/LCD_Seg_1.c **** uint32 LCD_Seg_1_SetContrast(uint32 contrast)
 603:Generated_Source\PSoC4/LCD_Seg_1.c **** {
 460              		.loc 1 603 0
 461              		.cfi_startproc
 462              		@ args = 0, pretend = 0, frame = 0
 463              		@ frame_needed = 0, uses_anonymous_args = 0
 464              	.LVL43:
 465 0000 10B5     		push	{r4, lr}
 466              		.cfi_def_cfa_offset 8
 467              		.cfi_offset 4, -8
 468              		.cfi_offset 14, -4
 469 0002 0400     		movs	r4, r0
 470              	.LVL44:
ARM GAS  C:\Users\iborg\AppData\Local\Temp\ccRvSWiO.s 			page 20


 604:Generated_Source\PSoC4/LCD_Seg_1.c ****     uint32 status = CYRET_BAD_PARAM;
 605:Generated_Source\PSoC4/LCD_Seg_1.c ****     uint32 contrastIndex;
 606:Generated_Source\PSoC4/LCD_Seg_1.c **** 
 607:Generated_Source\PSoC4/LCD_Seg_1.c ****     if ((LCD_Seg_1_MIN_CONTRAST <= contrast) && (contrast <= LCD_Seg_1_MAX_CONTRAST))
 471              		.loc 1 607 0
 472 0004 0300     		movs	r3, r0
 473 0006 0A3B     		subs	r3, r3, #10
 474 0008 5A2B     		cmp	r3, #90
 475 000a 34D8     		bhi	.L29
 608:Generated_Source\PSoC4/LCD_Seg_1.c ****     {
 609:Generated_Source\PSoC4/LCD_Seg_1.c ****         contrastIndex = (contrast / 10u) - 1u;
 476              		.loc 1 609 0
 477 000c 0A21     		movs	r1, #10
 478 000e FFF7FEFF 		bl	__aeabi_uidiv
 479              	.LVL45:
 480 0012 431E     		subs	r3, r0, #1
 481              	.LVL46:
 610:Generated_Source\PSoC4/LCD_Seg_1.c ****         if (LCD_Seg_1_SPEED_LS == LCD_Seg_1_modeState)
 482              		.loc 1 610 0
 483 0014 194A     		ldr	r2, .L32
 484 0016 1268     		ldr	r2, [r2]
 485 0018 002A     		cmp	r2, #0
 486 001a 11D1     		bne	.L27
 611:Generated_Source\PSoC4/LCD_Seg_1.c ****         {
 612:Generated_Source\PSoC4/LCD_Seg_1.c ****             if (LCD_Seg_1_dividersLS[LCD_Seg_1_DEAD_DIVS][contrastIndex] !=
 487              		.loc 1 612 0
 488 001c 1849     		ldr	r1, .L32+4
 489 001e 9A00     		lsls	r2, r3, #2
 490 0020 5258     		ldr	r2, [r2, r1]
 613:Generated_Source\PSoC4/LCD_Seg_1.c ****                 LCD_Seg_1_dividersLS[LCD_Seg_1_DEAD_DIVS][contrastIndex + 1u])
 491              		.loc 1 613 0
 492 0022 8000     		lsls	r0, r0, #2
 493 0024 4158     		ldr	r1, [r0, r1]
 612:Generated_Source\PSoC4/LCD_Seg_1.c ****                 LCD_Seg_1_dividersLS[LCD_Seg_1_DEAD_DIVS][contrastIndex + 1u])
 494              		.loc 1 612 0
 495 0026 8A42     		cmp	r2, r1
 496 0028 1FD0     		beq	.L30
 614:Generated_Source\PSoC4/LCD_Seg_1.c ****             {
 615:Generated_Source\PSoC4/LCD_Seg_1.c ****                 /* Set sub-frame and dead time dividers */
 616:Generated_Source\PSoC4/LCD_Seg_1.c ****                 LCD_Seg_1_DIVIDER_REG = (LCD_Seg_1_DIVIDER_REG
 497              		.loc 1 616 0
 498 002a 1649     		ldr	r1, .L32+8
 499 002c 0868     		ldr	r0, [r1]
 617:Generated_Source\PSoC4/LCD_Seg_1.c ****                         & ((uint32)(~LCD_Seg_1_DIVIDER_MASK)))
 618:Generated_Source\PSoC4/LCD_Seg_1.c ****                         | LCD_Seg_1_dividersLS[LCD_Seg_1_SUBFR_DIVS][contrastIndex]
 500              		.loc 1 618 0
 501 002e 0A33     		adds	r3, r3, #10
 502              	.LVL47:
 503 0030 9B00     		lsls	r3, r3, #2
 504              	.LVL48:
 505 0032 1348     		ldr	r0, .L32+4
 506 0034 1B58     		ldr	r3, [r3, r0]
 619:Generated_Source\PSoC4/LCD_Seg_1.c ****                         | ((uint32)((uint32)LCD_Seg_1_dividersLS[LCD_Seg_1_DEAD_DIVS][contrastIndex
 507              		.loc 1 619 0
 508 0036 1204     		lsls	r2, r2, #16
 509 0038 1A43     		orrs	r2, r3
 616:Generated_Source\PSoC4/LCD_Seg_1.c ****                         & ((uint32)(~LCD_Seg_1_DIVIDER_MASK)))
ARM GAS  C:\Users\iborg\AppData\Local\Temp\ccRvSWiO.s 			page 21


 510              		.loc 1 616 0
 511 003a 0A60     		str	r2, [r1]
 512              	.LVL49:
 620:Generated_Source\PSoC4/LCD_Seg_1.c ****                                             LCD_Seg_1_DEAD_DIV_MASK_SHIFT));
 621:Generated_Source\PSoC4/LCD_Seg_1.c ****                 status = CYRET_SUCCESS;
 513              		.loc 1 621 0
 514 003c 0020     		movs	r0, #0
 515 003e 17E0     		b	.L28
 516              	.LVL50:
 517              	.L27:
 622:Generated_Source\PSoC4/LCD_Seg_1.c ****             }
 623:Generated_Source\PSoC4/LCD_Seg_1.c ****         }
 624:Generated_Source\PSoC4/LCD_Seg_1.c ****         else /* (LCD_Seg_1_SPEED_HS == LCD_Seg_1_modeState) */
 625:Generated_Source\PSoC4/LCD_Seg_1.c ****         {
 626:Generated_Source\PSoC4/LCD_Seg_1.c ****             if (LCD_Seg_1_dividersHS[LCD_Seg_1_DEAD_DIVS][contrastIndex] !=
 518              		.loc 1 626 0
 519 0040 0F49     		ldr	r1, .L32+4
 520 0042 9A00     		lsls	r2, r3, #2
 521 0044 8A18     		adds	r2, r1, r2
 522 0046 126D     		ldr	r2, [r2, #80]
 627:Generated_Source\PSoC4/LCD_Seg_1.c ****                 LCD_Seg_1_dividersHS[LCD_Seg_1_DEAD_DIVS][contrastIndex + 1u])
 523              		.loc 1 627 0
 524 0048 8000     		lsls	r0, r0, #2
 525 004a 0818     		adds	r0, r1, r0
 526 004c 016D     		ldr	r1, [r0, #80]
 626:Generated_Source\PSoC4/LCD_Seg_1.c ****                 LCD_Seg_1_dividersHS[LCD_Seg_1_DEAD_DIVS][contrastIndex + 1u])
 527              		.loc 1 626 0
 528 004e 8A42     		cmp	r2, r1
 529 0050 0DD0     		beq	.L31
 628:Generated_Source\PSoC4/LCD_Seg_1.c ****             {
 629:Generated_Source\PSoC4/LCD_Seg_1.c ****                 /* Set sub-frame and dead time dividers */
 630:Generated_Source\PSoC4/LCD_Seg_1.c ****                 LCD_Seg_1_DIVIDER_REG = (LCD_Seg_1_DIVIDER_REG
 530              		.loc 1 630 0
 531 0052 0C49     		ldr	r1, .L32+8
 532 0054 0868     		ldr	r0, [r1]
 631:Generated_Source\PSoC4/LCD_Seg_1.c ****                         & ((uint32)(~LCD_Seg_1_DIVIDER_MASK)))
 632:Generated_Source\PSoC4/LCD_Seg_1.c ****                         | LCD_Seg_1_dividersHS[LCD_Seg_1_SUBFR_DIVS][contrastIndex]
 533              		.loc 1 632 0
 534 0056 0A33     		adds	r3, r3, #10
 535              	.LVL51:
 536 0058 9B00     		lsls	r3, r3, #2
 537              	.LVL52:
 538 005a 0948     		ldr	r0, .L32+4
 539 005c C318     		adds	r3, r0, r3
 540 005e 1B6D     		ldr	r3, [r3, #80]
 633:Generated_Source\PSoC4/LCD_Seg_1.c ****                         | ((uint32)((uint32)LCD_Seg_1_dividersHS[LCD_Seg_1_DEAD_DIVS][contrastIndex
 541              		.loc 1 633 0
 542 0060 1204     		lsls	r2, r2, #16
 543 0062 1A43     		orrs	r2, r3
 630:Generated_Source\PSoC4/LCD_Seg_1.c ****                         & ((uint32)(~LCD_Seg_1_DIVIDER_MASK)))
 544              		.loc 1 630 0
 545 0064 0A60     		str	r2, [r1]
 546              	.LVL53:
 634:Generated_Source\PSoC4/LCD_Seg_1.c ****                                             LCD_Seg_1_DEAD_DIV_MASK_SHIFT));
 635:Generated_Source\PSoC4/LCD_Seg_1.c ****                 status = CYRET_SUCCESS;
 547              		.loc 1 635 0
 548 0066 0020     		movs	r0, #0
ARM GAS  C:\Users\iborg\AppData\Local\Temp\ccRvSWiO.s 			page 22


 549 0068 02E0     		b	.L28
 550              	.LVL54:
 551              	.L30:
 604:Generated_Source\PSoC4/LCD_Seg_1.c ****     uint32 contrastIndex;
 552              		.loc 1 604 0
 553 006a 0120     		movs	r0, #1
 554 006c 00E0     		b	.L28
 555              	.L31:
 556 006e 0120     		movs	r0, #1
 557              	.LVL55:
 558              	.L28:
 636:Generated_Source\PSoC4/LCD_Seg_1.c ****             }
 637:Generated_Source\PSoC4/LCD_Seg_1.c ****         }
 638:Generated_Source\PSoC4/LCD_Seg_1.c **** 
 639:Generated_Source\PSoC4/LCD_Seg_1.c ****         LCD_Seg_1_contrastState = contrast; /* Saves new contrast value */
 559              		.loc 1 639 0
 560 0070 024B     		ldr	r3, .L32
 561 0072 5C60     		str	r4, [r3, #4]
 562 0074 00E0     		b	.L26
 563              	.LVL56:
 564              	.L29:
 604:Generated_Source\PSoC4/LCD_Seg_1.c ****     uint32 contrastIndex;
 565              		.loc 1 604 0
 566 0076 0120     		movs	r0, #1
 567              	.LVL57:
 568              	.L26:
 640:Generated_Source\PSoC4/LCD_Seg_1.c ****     }
 641:Generated_Source\PSoC4/LCD_Seg_1.c **** 
 642:Generated_Source\PSoC4/LCD_Seg_1.c ****     return(status);
 643:Generated_Source\PSoC4/LCD_Seg_1.c **** }
 569              		.loc 1 643 0
 570              		@ sp needed
 571              	.LVL58:
 572 0078 10BD     		pop	{r4, pc}
 573              	.L33:
 574 007a C046     		.align	2
 575              	.L32:
 576 007c 00000000 		.word	.LANCHOR0
 577 0080 00000000 		.word	.LANCHOR1
 578 0084 04000940 		.word	1074331652
 579              		.cfi_endproc
 580              	.LFE10:
 581              		.size	LCD_Seg_1_SetContrast, .-LCD_Seg_1_SetContrast
 582              		.section	.text.LCD_Seg_1_WriteInvertState,"ax",%progbits
 583              		.align	2
 584              		.global	LCD_Seg_1_WriteInvertState
 585              		.code	16
 586              		.thumb_func
 587              		.type	LCD_Seg_1_WriteInvertState, %function
 588              	LCD_Seg_1_WriteInvertState:
 589              	.LFB11:
 644:Generated_Source\PSoC4/LCD_Seg_1.c **** 
 645:Generated_Source\PSoC4/LCD_Seg_1.c **** 
 646:Generated_Source\PSoC4/LCD_Seg_1.c **** /*******************************************************************************
 647:Generated_Source\PSoC4/LCD_Seg_1.c **** * Function Name: LCD_Seg_1_WriteInvertState
 648:Generated_Source\PSoC4/LCD_Seg_1.c **** ********************************************************************************
 649:Generated_Source\PSoC4/LCD_Seg_1.c **** *
ARM GAS  C:\Users\iborg\AppData\Local\Temp\ccRvSWiO.s 			page 23


 650:Generated_Source\PSoC4/LCD_Seg_1.c **** * Summary:
 651:Generated_Source\PSoC4/LCD_Seg_1.c **** *  Inverts the display based on an input parameter.
 652:Generated_Source\PSoC4/LCD_Seg_1.c **** *
 653:Generated_Source\PSoC4/LCD_Seg_1.c **** * Parameters:
 654:Generated_Source\PSoC4/LCD_Seg_1.c **** *  invertState : Sets the invert state of the display:
 655:Generated_Source\PSoC4/LCD_Seg_1.c **** *    Define                            Description
 656:Generated_Source\PSoC4/LCD_Seg_1.c **** *     LCD_Seg_1_STATE_NORMAL     Normal non inverted display.
 657:Generated_Source\PSoC4/LCD_Seg_1.c **** *     LCD_Seg_1_STATE_INVERTED   Inverted display.
 658:Generated_Source\PSoC4/LCD_Seg_1.c **** *
 659:Generated_Source\PSoC4/LCD_Seg_1.c **** * Return:
 660:Generated_Source\PSoC4/LCD_Seg_1.c **** *  None.
 661:Generated_Source\PSoC4/LCD_Seg_1.c **** *
 662:Generated_Source\PSoC4/LCD_Seg_1.c **** * Global variables:
 663:Generated_Source\PSoC4/LCD_Seg_1.c **** *  LCD_Seg_1_invertState - holds the current LCD state (Inverted display
 664:Generated_Source\PSoC4/LCD_Seg_1.c **** *                                 or Normal (non inverted) display).
 665:Generated_Source\PSoC4/LCD_Seg_1.c **** *  LCD_Seg_1_commons[] - holds the pixel locations for common lines.
 666:Generated_Source\PSoC4/LCD_Seg_1.c **** *
 667:Generated_Source\PSoC4/LCD_Seg_1.c **** *******************************************************************************/
 668:Generated_Source\PSoC4/LCD_Seg_1.c **** void LCD_Seg_1_WriteInvertState(uint32 invertState)
 669:Generated_Source\PSoC4/LCD_Seg_1.c **** {
 590              		.loc 1 669 0
 591              		.cfi_startproc
 592              		@ args = 0, pretend = 0, frame = 0
 593              		@ frame_needed = 0, uses_anonymous_args = 0
 594              	.LVL59:
 595 0000 70B5     		push	{r4, r5, r6, lr}
 596              		.cfi_def_cfa_offset 16
 597              		.cfi_offset 4, -16
 598              		.cfi_offset 5, -12
 599              		.cfi_offset 6, -8
 600              		.cfi_offset 14, -4
 601 0002 0600     		movs	r6, r0
 670:Generated_Source\PSoC4/LCD_Seg_1.c ****     uint32 i;
 671:Generated_Source\PSoC4/LCD_Seg_1.c ****     uint32 j;
 672:Generated_Source\PSoC4/LCD_Seg_1.c **** 
 673:Generated_Source\PSoC4/LCD_Seg_1.c ****     if (invertState != LCD_Seg_1_invertState)
 602              		.loc 1 673 0
 603 0004 194B     		ldr	r3, .L40
 604 0006 1B68     		ldr	r3, [r3]
 605 0008 8342     		cmp	r3, r0
 606 000a 2DD0     		beq	.L34
 674:Generated_Source\PSoC4/LCD_Seg_1.c ****     {
 675:Generated_Source\PSoC4/LCD_Seg_1.c ****         /* Invert entire frame buffer */
 676:Generated_Source\PSoC4/LCD_Seg_1.c ****         LCD_Seg_1_DATA0_REG = (uint32)(~LCD_Seg_1_DATA0_REG);
 607              		.loc 1 676 0
 608 000c 184A     		ldr	r2, .L40+4
 609 000e 1368     		ldr	r3, [r2]
 610 0010 DB43     		mvns	r3, r3
 611 0012 1360     		str	r3, [r2]
 677:Generated_Source\PSoC4/LCD_Seg_1.c ****         LCD_Seg_1_DATA1_REG = (uint32)(~LCD_Seg_1_DATA1_REG);
 612              		.loc 1 677 0
 613 0014 174A     		ldr	r2, .L40+8
 614 0016 1368     		ldr	r3, [r2]
 615 0018 DB43     		mvns	r3, r3
 616 001a 1360     		str	r3, [r2]
 678:Generated_Source\PSoC4/LCD_Seg_1.c ****         LCD_Seg_1_DATA2_REG = (uint32)(~LCD_Seg_1_DATA2_REG);
 617              		.loc 1 678 0
ARM GAS  C:\Users\iborg\AppData\Local\Temp\ccRvSWiO.s 			page 24


 618 001c 164A     		ldr	r2, .L40+12
 619 001e 1368     		ldr	r3, [r2]
 620 0020 DB43     		mvns	r3, r3
 621 0022 1360     		str	r3, [r2]
 679:Generated_Source\PSoC4/LCD_Seg_1.c ****         LCD_Seg_1_DATA3_REG = (uint32)(~LCD_Seg_1_DATA3_REG);
 622              		.loc 1 679 0
 623 0024 154A     		ldr	r2, .L40+16
 624 0026 1368     		ldr	r3, [r2]
 625 0028 DB43     		mvns	r3, r3
 626 002a 1360     		str	r3, [r2]
 680:Generated_Source\PSoC4/LCD_Seg_1.c ****         LCD_Seg_1_DATA4_REG = (uint32)(~LCD_Seg_1_DATA4_REG);
 627              		.loc 1 680 0
 628 002c 144A     		ldr	r2, .L40+20
 629 002e 1368     		ldr	r3, [r2]
 630 0030 DB43     		mvns	r3, r3
 631 0032 1360     		str	r3, [r2]
 632              	.LVL60:
 681:Generated_Source\PSoC4/LCD_Seg_1.c **** 
 682:Generated_Source\PSoC4/LCD_Seg_1.c ****         /* Reinitialize the commons */
 683:Generated_Source\PSoC4/LCD_Seg_1.c ****         for (i = 0u; i < LCD_Seg_1_COM_NUM; i++)
 633              		.loc 1 683 0
 634 0034 0025     		movs	r5, #0
 635 0036 13E0     		b	.L36
 636              	.LVL61:
 637              	.L37:
 684:Generated_Source\PSoC4/LCD_Seg_1.c ****         {
 685:Generated_Source\PSoC4/LCD_Seg_1.c ****             /* Clear commons pin data after frame buffer inverting */
 686:Generated_Source\PSoC4/LCD_Seg_1.c ****             for (j = 0u; j < LCD_Seg_1_COM_NUM; j++)
 687:Generated_Source\PSoC4/LCD_Seg_1.c ****             {
 688:Generated_Source\PSoC4/LCD_Seg_1.c ****                 LCD_Seg_1_WriteFrameBuffer(LCD_Seg_1_DATA0_PTR,
 689:Generated_Source\PSoC4/LCD_Seg_1.c ****                 ((LCD_Seg_1_commons[i] & ((uint32)(~LCD_Seg_1_ROW_MASK))) |
 690:Generated_Source\PSoC4/LCD_Seg_1.c ****                 ((uint32)(j << LCD_Seg_1_ROW_SHIFT))), LCD_Seg_1_PIXEL_STATE_OFF);
 638              		.loc 1 690 0 discriminator 3
 639 0038 2304     		lsls	r3, r4, #16
 688:Generated_Source\PSoC4/LCD_Seg_1.c ****                 ((LCD_Seg_1_commons[i] & ((uint32)(~LCD_Seg_1_ROW_MASK))) |
 640              		.loc 1 688 0 discriminator 3
 641 003a 8021     		movs	r1, #128
 642 003c 8900     		lsls	r1, r1, #2
 643 003e 1943     		orrs	r1, r3
 644 0040 0022     		movs	r2, #0
 645 0042 0B48     		ldr	r0, .L40+4
 646 0044 FFF7FEFF 		bl	LCD_Seg_1_WriteFrameBuffer
 647              	.LVL62:
 686:Generated_Source\PSoC4/LCD_Seg_1.c ****             {
 648              		.loc 1 686 0 discriminator 3
 649 0048 0134     		adds	r4, r4, #1
 650              	.LVL63:
 651 004a 00E0     		b	.L38
 652              	.LVL64:
 653              	.L39:
 654 004c 0024     		movs	r4, #0
 655              	.L38:
 656              	.LVL65:
 686:Generated_Source\PSoC4/LCD_Seg_1.c ****             {
 657              		.loc 1 686 0 is_stmt 0 discriminator 1
 658 004e 002C     		cmp	r4, #0
 659 0050 F2D0     		beq	.L37
ARM GAS  C:\Users\iborg\AppData\Local\Temp\ccRvSWiO.s 			page 25


 691:Generated_Source\PSoC4/LCD_Seg_1.c ****             }
 692:Generated_Source\PSoC4/LCD_Seg_1.c **** 
 693:Generated_Source\PSoC4/LCD_Seg_1.c ****             /* Set pin data for commons */
 694:Generated_Source\PSoC4/LCD_Seg_1.c ****             LCD_Seg_1_WriteFrameBuffer(LCD_Seg_1_DATA0_PTR, LCD_Seg_1_commons[i],
 660              		.loc 1 694 0 is_stmt 1 discriminator 2
 661 0052 0122     		movs	r2, #1
 662 0054 8021     		movs	r1, #128
 663 0056 8900     		lsls	r1, r1, #2
 664 0058 0548     		ldr	r0, .L40+4
 665 005a FFF7FEFF 		bl	LCD_Seg_1_WriteFrameBuffer
 666              	.LVL66:
 683:Generated_Source\PSoC4/LCD_Seg_1.c ****         {
 667              		.loc 1 683 0 discriminator 2
 668 005e 0135     		adds	r5, r5, #1
 669              	.LVL67:
 670              	.L36:
 683:Generated_Source\PSoC4/LCD_Seg_1.c ****         {
 671              		.loc 1 683 0 is_stmt 0 discriminator 1
 672 0060 002D     		cmp	r5, #0
 673 0062 F3D0     		beq	.L39
 695:Generated_Source\PSoC4/LCD_Seg_1.c ****                                               LCD_Seg_1_PIXEL_STATE_ON);
 696:Generated_Source\PSoC4/LCD_Seg_1.c ****         }
 697:Generated_Source\PSoC4/LCD_Seg_1.c **** 
 698:Generated_Source\PSoC4/LCD_Seg_1.c ****         LCD_Seg_1_invertState = invertState;
 674              		.loc 1 698 0 is_stmt 1
 675 0064 014B     		ldr	r3, .L40
 676 0066 1E60     		str	r6, [r3]
 677              	.LVL68:
 678              	.L34:
 699:Generated_Source\PSoC4/LCD_Seg_1.c ****     }
 700:Generated_Source\PSoC4/LCD_Seg_1.c **** }
 679              		.loc 1 700 0
 680              		@ sp needed
 681              	.LVL69:
 682 0068 70BD     		pop	{r4, r5, r6, pc}
 683              	.L41:
 684 006a C046     		.align	2
 685              	.L40:
 686 006c 00000000 		.word	.LANCHOR2
 687 0070 00010940 		.word	1074331904
 688 0074 04010940 		.word	1074331908
 689 0078 08010940 		.word	1074331912
 690 007c 0C010940 		.word	1074331916
 691 0080 10010940 		.word	1074331920
 692              		.cfi_endproc
 693              	.LFE11:
 694              		.size	LCD_Seg_1_WriteInvertState, .-LCD_Seg_1_WriteInvertState
 695              		.section	.text.LCD_Seg_1_ReadInvertState,"ax",%progbits
 696              		.align	2
 697              		.global	LCD_Seg_1_ReadInvertState
 698              		.code	16
 699              		.thumb_func
 700              		.type	LCD_Seg_1_ReadInvertState, %function
 701              	LCD_Seg_1_ReadInvertState:
 702              	.LFB12:
 701:Generated_Source\PSoC4/LCD_Seg_1.c **** 
 702:Generated_Source\PSoC4/LCD_Seg_1.c **** 
ARM GAS  C:\Users\iborg\AppData\Local\Temp\ccRvSWiO.s 			page 26


 703:Generated_Source\PSoC4/LCD_Seg_1.c **** /*******************************************************************************
 704:Generated_Source\PSoC4/LCD_Seg_1.c **** * Function Name: LCD_Seg_1_ReadInvertState
 705:Generated_Source\PSoC4/LCD_Seg_1.c **** ********************************************************************************
 706:Generated_Source\PSoC4/LCD_Seg_1.c **** *
 707:Generated_Source\PSoC4/LCD_Seg_1.c **** * Summary:
 708:Generated_Source\PSoC4/LCD_Seg_1.c **** *  Returns the current value of the display invert state: normal or inverted.
 709:Generated_Source\PSoC4/LCD_Seg_1.c **** *
 710:Generated_Source\PSoC4/LCD_Seg_1.c **** * Parameters:
 711:Generated_Source\PSoC4/LCD_Seg_1.c **** *  None.
 712:Generated_Source\PSoC4/LCD_Seg_1.c **** *
 713:Generated_Source\PSoC4/LCD_Seg_1.c **** * Return:
 714:Generated_Source\PSoC4/LCD_Seg_1.c **** *  The invert state of the display:
 715:Generated_Source\PSoC4/LCD_Seg_1.c **** *    Define                            Description
 716:Generated_Source\PSoC4/LCD_Seg_1.c **** *     LCD_Seg_1_STATE_NORMAL     Normal non inverted display.
 717:Generated_Source\PSoC4/LCD_Seg_1.c **** *     LCD_Seg_1_STATE_INVERTED   Inverted display.
 718:Generated_Source\PSoC4/LCD_Seg_1.c **** *
 719:Generated_Source\PSoC4/LCD_Seg_1.c **** * Global variables:
 720:Generated_Source\PSoC4/LCD_Seg_1.c **** *  LCD_Seg_1_invertState - holds the current LCD state (Inverted display
 721:Generated_Source\PSoC4/LCD_Seg_1.c **** *                                 or Normal (non inverted) display).
 722:Generated_Source\PSoC4/LCD_Seg_1.c **** *
 723:Generated_Source\PSoC4/LCD_Seg_1.c **** *******************************************************************************/
 724:Generated_Source\PSoC4/LCD_Seg_1.c **** uint32 LCD_Seg_1_ReadInvertState(void)
 725:Generated_Source\PSoC4/LCD_Seg_1.c **** {
 703              		.loc 1 725 0
 704              		.cfi_startproc
 705              		@ args = 0, pretend = 0, frame = 0
 706              		@ frame_needed = 0, uses_anonymous_args = 0
 707              		@ link register save eliminated.
 726:Generated_Source\PSoC4/LCD_Seg_1.c ****     return (LCD_Seg_1_invertState);
 708              		.loc 1 726 0
 709 0000 014B     		ldr	r3, .L43
 710 0002 1868     		ldr	r0, [r3]
 727:Generated_Source\PSoC4/LCD_Seg_1.c **** }
 711              		.loc 1 727 0
 712              		@ sp needed
 713 0004 7047     		bx	lr
 714              	.L44:
 715 0006 C046     		.align	2
 716              	.L43:
 717 0008 00000000 		.word	.LANCHOR2
 718              		.cfi_endproc
 719              	.LFE12:
 720              		.size	LCD_Seg_1_ReadInvertState, .-LCD_Seg_1_ReadInvertState
 721              		.section	.text.LCD_Seg_1_ClearDisplay,"ax",%progbits
 722              		.align	2
 723              		.global	LCD_Seg_1_ClearDisplay
 724              		.code	16
 725              		.thumb_func
 726              		.type	LCD_Seg_1_ClearDisplay, %function
 727              	LCD_Seg_1_ClearDisplay:
 728              	.LFB13:
 728:Generated_Source\PSoC4/LCD_Seg_1.c **** 
 729:Generated_Source\PSoC4/LCD_Seg_1.c **** 
 730:Generated_Source\PSoC4/LCD_Seg_1.c **** /*******************************************************************************
 731:Generated_Source\PSoC4/LCD_Seg_1.c **** * Function Name: LCD_Seg_1_ClearDisplay
 732:Generated_Source\PSoC4/LCD_Seg_1.c **** ********************************************************************************
 733:Generated_Source\PSoC4/LCD_Seg_1.c **** *
ARM GAS  C:\Users\iborg\AppData\Local\Temp\ccRvSWiO.s 			page 27


 734:Generated_Source\PSoC4/LCD_Seg_1.c **** * Summary:
 735:Generated_Source\PSoC4/LCD_Seg_1.c **** *  This function clears the display and the associated frame buffer RAM.
 736:Generated_Source\PSoC4/LCD_Seg_1.c **** *
 737:Generated_Source\PSoC4/LCD_Seg_1.c **** * Parameters:
 738:Generated_Source\PSoC4/LCD_Seg_1.c **** *  None.
 739:Generated_Source\PSoC4/LCD_Seg_1.c **** *
 740:Generated_Source\PSoC4/LCD_Seg_1.c **** * Return:
 741:Generated_Source\PSoC4/LCD_Seg_1.c **** *  None.
 742:Generated_Source\PSoC4/LCD_Seg_1.c **** *
 743:Generated_Source\PSoC4/LCD_Seg_1.c **** * Global variables:
 744:Generated_Source\PSoC4/LCD_Seg_1.c **** *  LCD_Seg_1_commons[] - holds the pixel locations for common lines.
 745:Generated_Source\PSoC4/LCD_Seg_1.c **** *  LCD_Seg_1_invertState - holds the current LCD state (Inverted display
 746:Generated_Source\PSoC4/LCD_Seg_1.c **** *                                 or Normal (non inverted) display).
 747:Generated_Source\PSoC4/LCD_Seg_1.c **** *
 748:Generated_Source\PSoC4/LCD_Seg_1.c **** *******************************************************************************/
 749:Generated_Source\PSoC4/LCD_Seg_1.c **** void LCD_Seg_1_ClearDisplay(void)
 750:Generated_Source\PSoC4/LCD_Seg_1.c **** {
 729              		.loc 1 750 0
 730              		.cfi_startproc
 731              		@ args = 0, pretend = 0, frame = 0
 732              		@ frame_needed = 0, uses_anonymous_args = 0
 733 0000 10B5     		push	{r4, lr}
 734              		.cfi_def_cfa_offset 8
 735              		.cfi_offset 4, -8
 736              		.cfi_offset 14, -4
 751:Generated_Source\PSoC4/LCD_Seg_1.c ****     uint32 i;
 752:Generated_Source\PSoC4/LCD_Seg_1.c **** 
 753:Generated_Source\PSoC4/LCD_Seg_1.c ****     /* Clear entire frame buffer to all zeroes */
 754:Generated_Source\PSoC4/LCD_Seg_1.c ****     LCD_Seg_1_DATA0_REG = 0Lu;
 737              		.loc 1 754 0
 738 0002 0023     		movs	r3, #0
 739 0004 0E4A     		ldr	r2, .L49
 740 0006 1360     		str	r3, [r2]
 755:Generated_Source\PSoC4/LCD_Seg_1.c ****     LCD_Seg_1_DATA1_REG = 0Lu;
 741              		.loc 1 755 0
 742 0008 0E4A     		ldr	r2, .L49+4
 743 000a 1360     		str	r3, [r2]
 756:Generated_Source\PSoC4/LCD_Seg_1.c ****     LCD_Seg_1_DATA2_REG = 0Lu;
 744              		.loc 1 756 0
 745 000c 0E4A     		ldr	r2, .L49+8
 746 000e 1360     		str	r3, [r2]
 757:Generated_Source\PSoC4/LCD_Seg_1.c ****     LCD_Seg_1_DATA3_REG = 0Lu;
 747              		.loc 1 757 0
 748 0010 0E4A     		ldr	r2, .L49+12
 749 0012 1360     		str	r3, [r2]
 758:Generated_Source\PSoC4/LCD_Seg_1.c ****     LCD_Seg_1_DATA4_REG = 0Lu;
 750              		.loc 1 758 0
 751 0014 0E4A     		ldr	r2, .L49+16
 752 0016 1360     		str	r3, [r2]
 753              	.LVL70:
 759:Generated_Source\PSoC4/LCD_Seg_1.c **** 
 760:Generated_Source\PSoC4/LCD_Seg_1.c ****     /* Reinitialize the commons */
 761:Generated_Source\PSoC4/LCD_Seg_1.c ****     for (i = 0u; i < LCD_Seg_1_COM_NUM; i++)
 754              		.loc 1 761 0
 755 0018 0024     		movs	r4, #0
 756 001a 06E0     		b	.L46
 757              	.LVL71:
ARM GAS  C:\Users\iborg\AppData\Local\Temp\ccRvSWiO.s 			page 28


 758              	.L47:
 762:Generated_Source\PSoC4/LCD_Seg_1.c ****     {
 763:Generated_Source\PSoC4/LCD_Seg_1.c ****         LCD_Seg_1_WriteFrameBuffer(LCD_Seg_1_DATA0_PTR, LCD_Seg_1_commons[i],
 759              		.loc 1 763 0 discriminator 3
 760 001c 0122     		movs	r2, #1
 761 001e 8021     		movs	r1, #128
 762 0020 8900     		lsls	r1, r1, #2
 763 0022 0748     		ldr	r0, .L49
 764 0024 FFF7FEFF 		bl	LCD_Seg_1_WriteFrameBuffer
 765              	.LVL72:
 761:Generated_Source\PSoC4/LCD_Seg_1.c ****     {
 766              		.loc 1 761 0 discriminator 3
 767 0028 0134     		adds	r4, r4, #1
 768              	.LVL73:
 769              	.L46:
 761:Generated_Source\PSoC4/LCD_Seg_1.c ****     {
 770              		.loc 1 761 0 is_stmt 0 discriminator 1
 771 002a 002C     		cmp	r4, #0
 772 002c F6D0     		beq	.L47
 764:Generated_Source\PSoC4/LCD_Seg_1.c ****                                           LCD_Seg_1_PIXEL_STATE_ON);
 765:Generated_Source\PSoC4/LCD_Seg_1.c ****     }
 766:Generated_Source\PSoC4/LCD_Seg_1.c **** 
 767:Generated_Source\PSoC4/LCD_Seg_1.c ****     /* If we were in inverted state before the display was cleared, then we must
 768:Generated_Source\PSoC4/LCD_Seg_1.c ****     * call WriteInvertState() as there is no separate API to clear inverted
 769:Generated_Source\PSoC4/LCD_Seg_1.c ****     * display.
 770:Generated_Source\PSoC4/LCD_Seg_1.c ****     */
 771:Generated_Source\PSoC4/LCD_Seg_1.c ****     if (LCD_Seg_1_invertState == LCD_Seg_1_STATE_INVERTED)
 773              		.loc 1 771 0 is_stmt 1
 774 002e 094B     		ldr	r3, .L49+20
 775 0030 1B68     		ldr	r3, [r3]
 776 0032 012B     		cmp	r3, #1
 777 0034 02D1     		bne	.L45
 772:Generated_Source\PSoC4/LCD_Seg_1.c ****     {
 773:Generated_Source\PSoC4/LCD_Seg_1.c ****         LCD_Seg_1_WriteInvertState(LCD_Seg_1_STATE_INVERTED);
 778              		.loc 1 773 0
 779 0036 0120     		movs	r0, #1
 780 0038 FFF7FEFF 		bl	LCD_Seg_1_WriteInvertState
 781              	.LVL74:
 782              	.L45:
 774:Generated_Source\PSoC4/LCD_Seg_1.c ****     }
 775:Generated_Source\PSoC4/LCD_Seg_1.c **** }
 783              		.loc 1 775 0
 784              		@ sp needed
 785              	.LVL75:
 786 003c 10BD     		pop	{r4, pc}
 787              	.L50:
 788 003e C046     		.align	2
 789              	.L49:
 790 0040 00010940 		.word	1074331904
 791 0044 04010940 		.word	1074331908
 792 0048 08010940 		.word	1074331912
 793 004c 0C010940 		.word	1074331916
 794 0050 10010940 		.word	1074331920
 795 0054 00000000 		.word	.LANCHOR2
 796              		.cfi_endproc
 797              	.LFE13:
 798              		.size	LCD_Seg_1_ClearDisplay, .-LCD_Seg_1_ClearDisplay
ARM GAS  C:\Users\iborg\AppData\Local\Temp\ccRvSWiO.s 			page 29


 799              		.section	.text.LCD_Seg_1_Init,"ax",%progbits
 800              		.align	2
 801              		.global	LCD_Seg_1_Init
 802              		.code	16
 803              		.thumb_func
 804              		.type	LCD_Seg_1_Init, %function
 805              	LCD_Seg_1_Init:
 806              	.LFB2:
 346:Generated_Source\PSoC4/LCD_Seg_1.c ****     LCD_Seg_1_Stop();
 807              		.loc 1 346 0
 808              		.cfi_startproc
 809              		@ args = 0, pretend = 0, frame = 0
 810              		@ frame_needed = 0, uses_anonymous_args = 0
 811 0000 10B5     		push	{r4, lr}
 812              		.cfi_def_cfa_offset 8
 813              		.cfi_offset 4, -8
 814              		.cfi_offset 14, -4
 347:Generated_Source\PSoC4/LCD_Seg_1.c **** 
 815              		.loc 1 347 0
 816 0002 FFF7FEFF 		bl	LCD_Seg_1_Stop
 817              	.LVL76:
 350:Generated_Source\PSoC4/LCD_Seg_1.c **** 
 818              		.loc 1 350 0
 819 0006 054A     		ldr	r2, .L52
 820 0008 054B     		ldr	r3, .L52+4
 821 000a 1A60     		str	r2, [r3]
 353:Generated_Source\PSoC4/LCD_Seg_1.c **** 
 822              		.loc 1 353 0
 823 000c EC22     		movs	r2, #236
 824 000e 5242     		rsbs	r2, r2, #0
 825 0010 044B     		ldr	r3, .L52+8
 826 0012 1A60     		str	r2, [r3]
 358:Generated_Source\PSoC4/LCD_Seg_1.c **** }
 827              		.loc 1 358 0
 828 0014 FFF7FEFF 		bl	LCD_Seg_1_ClearDisplay
 829              	.LVL77:
 359:Generated_Source\PSoC4/LCD_Seg_1.c **** 
 830              		.loc 1 359 0
 831              		@ sp needed
 832 0018 10BD     		pop	{r4, pc}
 833              	.L53:
 834 001a C046     		.align	2
 835              	.L52:
 836 001c 040D0000 		.word	3332
 837 0020 04000940 		.word	1074331652
 838 0024 08000940 		.word	1074331656
 839              		.cfi_endproc
 840              	.LFE2:
 841              		.size	LCD_Seg_1_Init, .-LCD_Seg_1_Init
 842              		.section	.text.LCD_Seg_1_Start,"ax",%progbits
 843              		.align	2
 844              		.global	LCD_Seg_1_Start
 845              		.code	16
 846              		.thumb_func
 847              		.type	LCD_Seg_1_Start, %function
 848              	LCD_Seg_1_Start:
 849              	.LFB4:
ARM GAS  C:\Users\iborg\AppData\Local\Temp\ccRvSWiO.s 			page 30


 417:Generated_Source\PSoC4/LCD_Seg_1.c ****     /* If not Initialized then initialize all required hardware and software */
 850              		.loc 1 417 0
 851              		.cfi_startproc
 852              		@ args = 0, pretend = 0, frame = 0
 853              		@ frame_needed = 0, uses_anonymous_args = 0
 854 0000 10B5     		push	{r4, lr}
 855              		.cfi_def_cfa_offset 8
 856              		.cfi_offset 4, -8
 857              		.cfi_offset 14, -4
 419:Generated_Source\PSoC4/LCD_Seg_1.c ****     {
 858              		.loc 1 419 0
 859 0002 064B     		ldr	r3, .L56
 860 0004 5B68     		ldr	r3, [r3, #4]
 861 0006 002B     		cmp	r3, #0
 862 0008 04D1     		bne	.L55
 421:Generated_Source\PSoC4/LCD_Seg_1.c ****         LCD_Seg_1_Init();
 863              		.loc 1 421 0
 864 000a 0122     		movs	r2, #1
 865 000c 034B     		ldr	r3, .L56
 866 000e 5A60     		str	r2, [r3, #4]
 422:Generated_Source\PSoC4/LCD_Seg_1.c ****     }
 867              		.loc 1 422 0
 868 0010 FFF7FEFF 		bl	LCD_Seg_1_Init
 869              	.LVL78:
 870              	.L55:
 425:Generated_Source\PSoC4/LCD_Seg_1.c **** }
 871              		.loc 1 425 0
 872 0014 FFF7FEFF 		bl	LCD_Seg_1_Enable
 873              	.LVL79:
 426:Generated_Source\PSoC4/LCD_Seg_1.c **** 
 874              		.loc 1 426 0
 875              		@ sp needed
 876 0018 10BD     		pop	{r4, pc}
 877              	.L57:
 878 001a C046     		.align	2
 879              	.L56:
 880 001c 00000000 		.word	.LANCHOR2
 881              		.cfi_endproc
 882              	.LFE4:
 883              		.size	LCD_Seg_1_Start, .-LCD_Seg_1_Start
 884              		.section	.text.LCD_Seg_1_ReadPixel,"ax",%progbits
 885              		.align	2
 886              		.global	LCD_Seg_1_ReadPixel
 887              		.code	16
 888              		.thumb_func
 889              		.type	LCD_Seg_1_ReadPixel, %function
 890              	LCD_Seg_1_ReadPixel:
 891              	.LFB15:
 776:Generated_Source\PSoC4/LCD_Seg_1.c **** 
 777:Generated_Source\PSoC4/LCD_Seg_1.c **** 
 778:Generated_Source\PSoC4/LCD_Seg_1.c **** /*******************************************************************************
 779:Generated_Source\PSoC4/LCD_Seg_1.c **** * Function Name: LCD_Seg_1_WritePixel
 780:Generated_Source\PSoC4/LCD_Seg_1.c **** ********************************************************************************
 781:Generated_Source\PSoC4/LCD_Seg_1.c **** *
 782:Generated_Source\PSoC4/LCD_Seg_1.c **** * Summary:
 783:Generated_Source\PSoC4/LCD_Seg_1.c **** *  Sets or clears a pixel based on the input parameter PixelState. The pixel is
 784:Generated_Source\PSoC4/LCD_Seg_1.c **** *  addressed by a packed number. This packed number comes from pixel mapping
ARM GAS  C:\Users\iborg\AppData\Local\Temp\ccRvSWiO.s 			page 31


 785:Generated_Source\PSoC4/LCD_Seg_1.c **** *  table of Display helpers. Pixel mapping table used to map the helper function
 786:Generated_Source\PSoC4/LCD_Seg_1.c **** *  pixel to the actual frame buffer pixel. All pixels have packed number defines
 787:Generated_Source\PSoC4/LCD_Seg_1.c **** *  which are resides in component header file.
 788:Generated_Source\PSoC4/LCD_Seg_1.c **** *
 789:Generated_Source\PSoC4/LCD_Seg_1.c **** * Parameters:
 790:Generated_Source\PSoC4/LCD_Seg_1.c **** *  pixelNumber : The predefined packed number that points to the pixel's
 791:Generated_Source\PSoC4/LCD_Seg_1.c **** *                location in the frame buffer. The LSB are the bit position in
 792:Generated_Source\PSoC4/LCD_Seg_1.c **** *                the byte, the LSB+1 is the byte address in the multiplex row
 793:Generated_Source\PSoC4/LCD_Seg_1.c **** *                and the MSB-1 is the multiplex row number.
 794:Generated_Source\PSoC4/LCD_Seg_1.c **** *  pixelState : The pixelNumber specified is set to this pixel state:
 795:Generated_Source\PSoC4/LCD_Seg_1.c **** *    Define                                Description
 796:Generated_Source\PSoC4/LCD_Seg_1.c **** *     LCD_Seg_1_PIXEL_STATE_ON        Pixel on.
 797:Generated_Source\PSoC4/LCD_Seg_1.c **** *     LCD_Seg_1_PIXEL_STATE_OFF       Pixel off.
 798:Generated_Source\PSoC4/LCD_Seg_1.c **** *     LCD_Seg_1_PIXEL_STATE_INVERT    Pixel invert.
 799:Generated_Source\PSoC4/LCD_Seg_1.c **** *
 800:Generated_Source\PSoC4/LCD_Seg_1.c **** * Return:
 801:Generated_Source\PSoC4/LCD_Seg_1.c **** *  Pass or fail based on a range check of the pixelNumber address:
 802:Generated_Source\PSoC4/LCD_Seg_1.c **** *    Define                     Description
 803:Generated_Source\PSoC4/LCD_Seg_1.c **** *     CYRET_SUCCESS              Function completed successfully.
 804:Generated_Source\PSoC4/LCD_Seg_1.c **** *     CYRET_BAD_PARAM            Evaluation of pixelNumber parameter is failed.
 805:Generated_Source\PSoC4/LCD_Seg_1.c **** *
 806:Generated_Source\PSoC4/LCD_Seg_1.c **** *******************************************************************************/
 807:Generated_Source\PSoC4/LCD_Seg_1.c **** uint32 LCD_Seg_1_WritePixel(uint32 pixelNumber, uint32 pixelState)
 808:Generated_Source\PSoC4/LCD_Seg_1.c **** {
 809:Generated_Source\PSoC4/LCD_Seg_1.c ****     uint32 status = CYRET_BAD_PARAM;
 810:Generated_Source\PSoC4/LCD_Seg_1.c **** 
 811:Generated_Source\PSoC4/LCD_Seg_1.c ****     if ((LCD_Seg_1_NOT_CON != pixelNumber) && (pixelState <= LCD_Seg_1_PIXEL_STATE_INVERT))
 812:Generated_Source\PSoC4/LCD_Seg_1.c ****     {
 813:Generated_Source\PSoC4/LCD_Seg_1.c ****         if (LCD_Seg_1_PIXEL_STATE_INVERT == pixelState)
 814:Generated_Source\PSoC4/LCD_Seg_1.c ****         {
 815:Generated_Source\PSoC4/LCD_Seg_1.c ****             /* Invert actual pixel state */
 816:Generated_Source\PSoC4/LCD_Seg_1.c ****             pixelState = LCD_Seg_1_ReadPixel(pixelNumber);
 817:Generated_Source\PSoC4/LCD_Seg_1.c ****             pixelState = ((uint32)(~pixelState)) & LCD_Seg_1_PIXEL_STATE_ON;
 818:Generated_Source\PSoC4/LCD_Seg_1.c ****         }
 819:Generated_Source\PSoC4/LCD_Seg_1.c **** 
 820:Generated_Source\PSoC4/LCD_Seg_1.c ****         /* Write new pixel's value to the frame buffer. */
 821:Generated_Source\PSoC4/LCD_Seg_1.c ****         LCD_Seg_1_WriteFrameBuffer(LCD_Seg_1_DATA0_PTR, pixelNumber, pixelState);
 822:Generated_Source\PSoC4/LCD_Seg_1.c **** 
 823:Generated_Source\PSoC4/LCD_Seg_1.c ****         status = CYRET_SUCCESS;
 824:Generated_Source\PSoC4/LCD_Seg_1.c ****     }
 825:Generated_Source\PSoC4/LCD_Seg_1.c **** 
 826:Generated_Source\PSoC4/LCD_Seg_1.c ****     return(status);
 827:Generated_Source\PSoC4/LCD_Seg_1.c **** }
 828:Generated_Source\PSoC4/LCD_Seg_1.c **** 
 829:Generated_Source\PSoC4/LCD_Seg_1.c **** 
 830:Generated_Source\PSoC4/LCD_Seg_1.c **** /*******************************************************************************
 831:Generated_Source\PSoC4/LCD_Seg_1.c **** * Function Name: LCD_Seg_1_ReadPixel
 832:Generated_Source\PSoC4/LCD_Seg_1.c **** ********************************************************************************
 833:Generated_Source\PSoC4/LCD_Seg_1.c **** *
 834:Generated_Source\PSoC4/LCD_Seg_1.c **** * Summary:
 835:Generated_Source\PSoC4/LCD_Seg_1.c **** *  Reads the state of a pixel in the frame buffer. The pixel is addressed by a
 836:Generated_Source\PSoC4/LCD_Seg_1.c **** *  packed number. This packed number comes from pixel mapping table of Display
 837:Generated_Source\PSoC4/LCD_Seg_1.c **** *  helpers. Pixel mapping table used to map the helper function pixel to the
 838:Generated_Source\PSoC4/LCD_Seg_1.c **** *  actual frame buffer pixel. All pixels have packed number defines which are
 839:Generated_Source\PSoC4/LCD_Seg_1.c **** *  resides in component header file.
 840:Generated_Source\PSoC4/LCD_Seg_1.c **** *
 841:Generated_Source\PSoC4/LCD_Seg_1.c **** * Parameters:
ARM GAS  C:\Users\iborg\AppData\Local\Temp\ccRvSWiO.s 			page 32


 842:Generated_Source\PSoC4/LCD_Seg_1.c **** *  pixelNumber : The predefined packed number that points to the pixel's
 843:Generated_Source\PSoC4/LCD_Seg_1.c **** *                location in the frame buffer. The LSB are the bit position in
 844:Generated_Source\PSoC4/LCD_Seg_1.c **** *                the byte, the LSB+1 is the byte address in the multiplex row
 845:Generated_Source\PSoC4/LCD_Seg_1.c **** *                and the MSB-1 is the multiplex row number.
 846:Generated_Source\PSoC4/LCD_Seg_1.c **** *
 847:Generated_Source\PSoC4/LCD_Seg_1.c **** * Return:
 848:Generated_Source\PSoC4/LCD_Seg_1.c **** *  Returns the current status of the PixelNumber specified:
 849:Generated_Source\PSoC4/LCD_Seg_1.c **** *    Define                                Description
 850:Generated_Source\PSoC4/LCD_Seg_1.c **** *     LCD_Seg_1_PIXEL_STATE_ON        Pixel on.
 851:Generated_Source\PSoC4/LCD_Seg_1.c **** *     LCD_Seg_1_PIXEL_STATE_OFF       Pixel off.
 852:Generated_Source\PSoC4/LCD_Seg_1.c **** *     LCD_Seg_1_PIXEL_UNKNOWN_STATE   Not assigned pixel.
 853:Generated_Source\PSoC4/LCD_Seg_1.c **** *
 854:Generated_Source\PSoC4/LCD_Seg_1.c **** *******************************************************************************/
 855:Generated_Source\PSoC4/LCD_Seg_1.c **** uint32 LCD_Seg_1_ReadPixel(uint32 pixelNumber)
 856:Generated_Source\PSoC4/LCD_Seg_1.c **** {
 892              		.loc 1 856 0
 893              		.cfi_startproc
 894              		@ args = 0, pretend = 0, frame = 0
 895              		@ frame_needed = 0, uses_anonymous_args = 0
 896              	.LVL80:
 897 0000 10B5     		push	{r4, lr}
 898              		.cfi_def_cfa_offset 8
 899              		.cfi_offset 4, -8
 900              		.cfi_offset 14, -4
 901              	.LVL81:
 857:Generated_Source\PSoC4/LCD_Seg_1.c ****     uint32 pixelState = LCD_Seg_1_PIXEL_UNKNOWN_STATE;
 858:Generated_Source\PSoC4/LCD_Seg_1.c **** 
 859:Generated_Source\PSoC4/LCD_Seg_1.c ****     if (LCD_Seg_1_NOT_CON != pixelNumber)
 902              		.loc 1 859 0
 903 0002 054B     		ldr	r3, .L61
 904 0004 9842     		cmp	r0, r3
 905 0006 04D0     		beq	.L60
 860:Generated_Source\PSoC4/LCD_Seg_1.c ****     {
 861:Generated_Source\PSoC4/LCD_Seg_1.c ****         pixelState = LCD_Seg_1_ReadFrameBuffer(LCD_Seg_1_DATA0_PTR, pixelNumber);
 906              		.loc 1 861 0
 907 0008 0100     		movs	r1, r0
 908 000a 0448     		ldr	r0, .L61+4
 909              	.LVL82:
 910 000c FFF7FEFF 		bl	LCD_Seg_1_ReadFrameBuffer
 911              	.LVL83:
 912 0010 00E0     		b	.L59
 913              	.LVL84:
 914              	.L60:
 857:Generated_Source\PSoC4/LCD_Seg_1.c ****     uint32 pixelState = LCD_Seg_1_PIXEL_UNKNOWN_STATE;
 915              		.loc 1 857 0
 916 0012 FF20     		movs	r0, #255
 917              	.LVL85:
 918              	.L59:
 862:Generated_Source\PSoC4/LCD_Seg_1.c ****     }
 863:Generated_Source\PSoC4/LCD_Seg_1.c **** 
 864:Generated_Source\PSoC4/LCD_Seg_1.c ****     return(pixelState);
 865:Generated_Source\PSoC4/LCD_Seg_1.c **** }
 919              		.loc 1 865 0
 920              		@ sp needed
 921 0014 10BD     		pop	{r4, pc}
 922              	.L62:
 923 0016 C046     		.align	2
ARM GAS  C:\Users\iborg\AppData\Local\Temp\ccRvSWiO.s 			page 33


 924              	.L61:
 925 0018 FFFF0000 		.word	65535
 926 001c 00010940 		.word	1074331904
 927              		.cfi_endproc
 928              	.LFE15:
 929              		.size	LCD_Seg_1_ReadPixel, .-LCD_Seg_1_ReadPixel
 930              		.section	.text.LCD_Seg_1_WritePixel,"ax",%progbits
 931              		.align	2
 932              		.global	LCD_Seg_1_WritePixel
 933              		.code	16
 934              		.thumb_func
 935              		.type	LCD_Seg_1_WritePixel, %function
 936              	LCD_Seg_1_WritePixel:
 937              	.LFB14:
 808:Generated_Source\PSoC4/LCD_Seg_1.c ****     uint32 status = CYRET_BAD_PARAM;
 938              		.loc 1 808 0
 939              		.cfi_startproc
 940              		@ args = 0, pretend = 0, frame = 0
 941              		@ frame_needed = 0, uses_anonymous_args = 0
 942              	.LVL86:
 943 0000 10B5     		push	{r4, lr}
 944              		.cfi_def_cfa_offset 8
 945              		.cfi_offset 4, -8
 946              		.cfi_offset 14, -4
 947 0002 0400     		movs	r4, r0
 948              	.LVL87:
 811:Generated_Source\PSoC4/LCD_Seg_1.c ****     {
 949              		.loc 1 811 0
 950 0004 0B4B     		ldr	r3, .L68
 951 0006 9842     		cmp	r0, r3
 952 0008 0FD0     		beq	.L66
 811:Generated_Source\PSoC4/LCD_Seg_1.c ****     {
 953              		.loc 1 811 0 is_stmt 0 discriminator 1
 954 000a 0229     		cmp	r1, #2
 955 000c 0FD8     		bhi	.L67
 813:Generated_Source\PSoC4/LCD_Seg_1.c ****         {
 956              		.loc 1 813 0 is_stmt 1
 957 000e 05D1     		bne	.L65
 816:Generated_Source\PSoC4/LCD_Seg_1.c ****             pixelState = ((uint32)(~pixelState)) & LCD_Seg_1_PIXEL_STATE_ON;
 958              		.loc 1 816 0
 959 0010 FFF7FEFF 		bl	LCD_Seg_1_ReadPixel
 960              	.LVL88:
 817:Generated_Source\PSoC4/LCD_Seg_1.c ****         }
 961              		.loc 1 817 0
 962 0014 0123     		movs	r3, #1
 963 0016 5840     		eors	r0, r3
 964              	.LVL89:
 965 0018 0121     		movs	r1, #1
 966 001a 0140     		ands	r1, r0
 967              	.LVL90:
 968              	.L65:
 821:Generated_Source\PSoC4/LCD_Seg_1.c **** 
 969              		.loc 1 821 0
 970 001c 0A00     		movs	r2, r1
 971 001e 2100     		movs	r1, r4
 972              	.LVL91:
 973 0020 0548     		ldr	r0, .L68+4
ARM GAS  C:\Users\iborg\AppData\Local\Temp\ccRvSWiO.s 			page 34


 974 0022 FFF7FEFF 		bl	LCD_Seg_1_WriteFrameBuffer
 975              	.LVL92:
 823:Generated_Source\PSoC4/LCD_Seg_1.c ****     }
 976              		.loc 1 823 0
 977 0026 0020     		movs	r0, #0
 978 0028 02E0     		b	.L64
 979              	.LVL93:
 980              	.L66:
 809:Generated_Source\PSoC4/LCD_Seg_1.c **** 
 981              		.loc 1 809 0
 982 002a 0120     		movs	r0, #1
 983              	.LVL94:
 984 002c 00E0     		b	.L64
 985              	.LVL95:
 986              	.L67:
 987 002e 0120     		movs	r0, #1
 988              	.LVL96:
 989              	.L64:
 827:Generated_Source\PSoC4/LCD_Seg_1.c **** 
 990              		.loc 1 827 0
 991              		@ sp needed
 992              	.LVL97:
 993 0030 10BD     		pop	{r4, pc}
 994              	.L69:
 995 0032 C046     		.align	2
 996              	.L68:
 997 0034 FFFF0000 		.word	65535
 998 0038 00010940 		.word	1074331904
 999              		.cfi_endproc
 1000              	.LFE14:
 1001              		.size	LCD_Seg_1_WritePixel, .-LCD_Seg_1_WritePixel
 1002              		.section	.text.LCD_Seg_1_Write7SegDigit_0,"ax",%progbits
 1003              		.align	2
 1004              		.global	LCD_Seg_1_Write7SegDigit_0
 1005              		.code	16
 1006              		.thumb_func
 1007              		.type	LCD_Seg_1_Write7SegDigit_0, %function
 1008              	LCD_Seg_1_Write7SegDigit_0:
 1009              	.LFB16:
 866:Generated_Source\PSoC4/LCD_Seg_1.c **** 
 867:Generated_Source\PSoC4/LCD_Seg_1.c **** 
 868:Generated_Source\PSoC4/LCD_Seg_1.c **** /*******************************************************************************
 869:Generated_Source\PSoC4/LCD_Seg_1.c **** * Function Name: LCD_Seg_1_Write7SegDigit_0
 870:Generated_Source\PSoC4/LCD_Seg_1.c **** ********************************************************************************
 871:Generated_Source\PSoC4/LCD_Seg_1.c **** *
 872:Generated_Source\PSoC4/LCD_Seg_1.c **** * Summary:
 873:Generated_Source\PSoC4/LCD_Seg_1.c **** *  This function displays a hexadecimal digit on an array of 7-segment display
 874:Generated_Source\PSoC4/LCD_Seg_1.c **** *  elements. Digits can be hexadecimal values in the range of 0 to 9 and A to F.
 875:Generated_Source\PSoC4/LCD_Seg_1.c **** *  The customizer Display Helpers facility must be used to define the pixel set
 876:Generated_Source\PSoC4/LCD_Seg_1.c **** *  associated with the 7-segment display elements. Multiple 7-segment display
 877:Generated_Source\PSoC4/LCD_Seg_1.c **** *  elements can be defined in the frame buffer and are addressed through the
 878:Generated_Source\PSoC4/LCD_Seg_1.c **** *  suffix (n) in the function name. This function is only included if a
 879:Generated_Source\PSoC4/LCD_Seg_1.c **** *  7-segment display element is defined in the component customizer.
 880:Generated_Source\PSoC4/LCD_Seg_1.c **** *
 881:Generated_Source\PSoC4/LCD_Seg_1.c **** * Parameters:
 882:Generated_Source\PSoC4/LCD_Seg_1.c **** *  digit : Unsigned integer value in the range of 0 to 15 to be displayed as a
 883:Generated_Source\PSoC4/LCD_Seg_1.c **** *          hexadecimal digit. The ASCII numbers of a hexadecimal characters are
ARM GAS  C:\Users\iborg\AppData\Local\Temp\ccRvSWiO.s 			page 35


 884:Generated_Source\PSoC4/LCD_Seg_1.c **** *          also valid. In case of a invalid digit value displays 0 in position
 885:Generated_Source\PSoC4/LCD_Seg_1.c **** *          specified.
 886:Generated_Source\PSoC4/LCD_Seg_1.c **** *  position : Position of the digit as counted right to left starting at 0 on
 887:Generated_Source\PSoC4/LCD_Seg_1.c **** *             the right. If the position is outside the defined display area,
 888:Generated_Source\PSoC4/LCD_Seg_1.c **** *             the character will not be displayed.
 889:Generated_Source\PSoC4/LCD_Seg_1.c **** *
 890:Generated_Source\PSoC4/LCD_Seg_1.c **** * Return: 
 891:Generated_Source\PSoC4/LCD_Seg_1.c **** *  None.
 892:Generated_Source\PSoC4/LCD_Seg_1.c **** *
 893:Generated_Source\PSoC4/LCD_Seg_1.c **** * Global variables:
 894:Generated_Source\PSoC4/LCD_Seg_1.c **** *  LCD_Seg_1_7SegDigits[] - used as a look-up table for 7 Segment helper.
 895:Generated_Source\PSoC4/LCD_Seg_1.c **** *  Holds decoded digit's pixel reflection for the helper.
 896:Generated_Source\PSoC4/LCD_Seg_1.c **** *
 897:Generated_Source\PSoC4/LCD_Seg_1.c **** *  LCD_Seg_1_DIGIT_NUM_0 - holds the maximum digit number for the helper.
 898:Generated_Source\PSoC4/LCD_Seg_1.c **** *
 899:Generated_Source\PSoC4/LCD_Seg_1.c **** *******************************************************************************/
 900:Generated_Source\PSoC4/LCD_Seg_1.c **** void LCD_Seg_1_Write7SegDigit_0(uint32 digit, uint32 position)
 901:Generated_Source\PSoC4/LCD_Seg_1.c **** {
 1010              		.loc 1 901 0
 1011              		.cfi_startproc
 1012              		@ args = 0, pretend = 0, frame = 0
 1013              		@ frame_needed = 0, uses_anonymous_args = 0
 1014              	.LVL98:
 1015 0000 70B5     		push	{r4, r5, r6, lr}
 1016              		.cfi_def_cfa_offset 16
 1017              		.cfi_offset 4, -16
 1018              		.cfi_offset 5, -12
 1019              		.cfi_offset 6, -8
 1020              		.cfi_offset 14, -4
 1021 0002 0600     		movs	r6, r0
 902:Generated_Source\PSoC4/LCD_Seg_1.c ****     static const uint32 LCD_Seg_1_disp0[1u][7u] = {{LCD_Seg_1_H7SEG0_A, LCD_Seg_1_H7SEG0_B, LCD_Seg
 903:Generated_Source\PSoC4/LCD_Seg_1.c ****     LCD_Seg_1_H7SEG0_D, LCD_Seg_1_H7SEG0_E, LCD_Seg_1_H7SEG0_F, LCD_Seg_1_H7SEG0_G}};
 904:Generated_Source\PSoC4/LCD_Seg_1.c ****     uint32 i;
 905:Generated_Source\PSoC4/LCD_Seg_1.c **** 
 906:Generated_Source\PSoC4/LCD_Seg_1.c ****     /* if digit < 16 then do nothing (we have correct data) */
 907:Generated_Source\PSoC4/LCD_Seg_1.c ****     if (digit <= 16u)
 1022              		.loc 1 907 0
 1023 0004 1028     		cmp	r0, #16
 1024 0006 08D9     		bls	.L71
 908:Generated_Source\PSoC4/LCD_Seg_1.c ****     {
 909:Generated_Source\PSoC4/LCD_Seg_1.c ****         /* nothing to do, as we have correct digit value */
 910:Generated_Source\PSoC4/LCD_Seg_1.c ****     }
 911:Generated_Source\PSoC4/LCD_Seg_1.c ****     /* if digit <= 0x39 then digit is ASCII code of a number (0-9) */
 912:Generated_Source\PSoC4/LCD_Seg_1.c ****     else if (digit <= 0x39u)
 1025              		.loc 1 912 0
 1026 0008 3928     		cmp	r0, #57
 1027 000a 01D8     		bhi	.L72
 913:Generated_Source\PSoC4/LCD_Seg_1.c ****     {
 914:Generated_Source\PSoC4/LCD_Seg_1.c ****         digit -= 0x30u;
 1028              		.loc 1 914 0
 1029 000c 303E     		subs	r6, r6, #48
 1030              	.LVL99:
 1031 000e 04E0     		b	.L71
 1032              	.LVL100:
 1033              	.L72:
 915:Generated_Source\PSoC4/LCD_Seg_1.c ****     }
 916:Generated_Source\PSoC4/LCD_Seg_1.c ****     /* if digit <= 0x46 then digit is ASCII code of a hex number (A-F) */
ARM GAS  C:\Users\iborg\AppData\Local\Temp\ccRvSWiO.s 			page 36


 917:Generated_Source\PSoC4/LCD_Seg_1.c ****     else if (digit <= 0x46u)
 1034              		.loc 1 917 0
 1035 0010 4628     		cmp	r0, #70
 1036 0012 01D8     		bhi	.L76
 918:Generated_Source\PSoC4/LCD_Seg_1.c ****     {
 919:Generated_Source\PSoC4/LCD_Seg_1.c ****         digit -= 0x37u;
 1037              		.loc 1 919 0
 1038 0014 373E     		subs	r6, r6, #55
 1039              	.LVL101:
 1040 0016 00E0     		b	.L71
 1041              	.LVL102:
 1042              	.L76:
 920:Generated_Source\PSoC4/LCD_Seg_1.c ****     }
 921:Generated_Source\PSoC4/LCD_Seg_1.c ****     /* else we have invalid digit, and we will print '0' instead */
 922:Generated_Source\PSoC4/LCD_Seg_1.c ****     else
 923:Generated_Source\PSoC4/LCD_Seg_1.c ****     {
 924:Generated_Source\PSoC4/LCD_Seg_1.c ****         digit = 0u;
 1043              		.loc 1 924 0
 1044 0018 0026     		movs	r6, #0
 1045              	.LVL103:
 1046              	.L71:
 925:Generated_Source\PSoC4/LCD_Seg_1.c ****     }
 926:Generated_Source\PSoC4/LCD_Seg_1.c **** 
 927:Generated_Source\PSoC4/LCD_Seg_1.c ****     if ((position / LCD_Seg_1_DIGIT_NUM_0) == 0u)
 1047              		.loc 1 927 0
 1048 001a 0029     		cmp	r1, #0
 1049 001c 14D1     		bne	.L70
 928:Generated_Source\PSoC4/LCD_Seg_1.c ****     {
 929:Generated_Source\PSoC4/LCD_Seg_1.c ****         position = (LCD_Seg_1_DIGIT_NUM_0 - position) - 1u;
 1050              		.loc 1 929 0
 1051 001e 4D42     		rsbs	r5, r1, #0
 1052              	.LVL104:
 930:Generated_Source\PSoC4/LCD_Seg_1.c ****         for (i = 0u; i < LCD_Seg_1_7SEG_PIX_NUM; i++)
 1053              		.loc 1 930 0
 1054 0020 0024     		movs	r4, #0
 1055 0022 0FE0     		b	.L74
 1056              	.LVL105:
 1057              	.L75:
 931:Generated_Source\PSoC4/LCD_Seg_1.c ****         {
 932:Generated_Source\PSoC4/LCD_Seg_1.c ****             (void)LCD_Seg_1_WritePixel(LCD_Seg_1_disp0[position][i],
 1058              		.loc 1 932 0 discriminator 3
 1059 0024 094A     		ldr	r2, .L77
 1060 0026 EB00     		lsls	r3, r5, #3
 1061 0028 5B1B     		subs	r3, r3, r5
 1062 002a 1B19     		adds	r3, r3, r4
 1063 002c 9B00     		lsls	r3, r3, #2
 1064 002e D318     		adds	r3, r2, r3
 1065 0030 186A     		ldr	r0, [r3, #32]
 933:Generated_Source\PSoC4/LCD_Seg_1.c ****             (((uint32)((uint32)LCD_Seg_1_7SegDigits[digit] >> i)) & LCD_Seg_1_PIXEL_STATE_ON));
 1066              		.loc 1 933 0 discriminator 3
 1067 0032 9219     		adds	r2, r2, r6
 1068 0034 3C23     		movs	r3, #60
 1069 0036 D15C     		ldrb	r1, [r2, r3]
 1070 0038 E140     		lsrs	r1, r1, r4
 932:Generated_Source\PSoC4/LCD_Seg_1.c ****             (((uint32)((uint32)LCD_Seg_1_7SegDigits[digit] >> i)) & LCD_Seg_1_PIXEL_STATE_ON));
 1071              		.loc 1 932 0 discriminator 3
 1072 003a 3B3B     		subs	r3, r3, #59
ARM GAS  C:\Users\iborg\AppData\Local\Temp\ccRvSWiO.s 			page 37


 1073 003c 1940     		ands	r1, r3
 1074 003e FFF7FEFF 		bl	LCD_Seg_1_WritePixel
 1075              	.LVL106:
 930:Generated_Source\PSoC4/LCD_Seg_1.c ****         {
 1076              		.loc 1 930 0 discriminator 3
 1077 0042 0134     		adds	r4, r4, #1
 1078              	.LVL107:
 1079              	.L74:
 930:Generated_Source\PSoC4/LCD_Seg_1.c ****         {
 1080              		.loc 1 930 0 is_stmt 0 discriminator 1
 1081 0044 062C     		cmp	r4, #6
 1082 0046 EDD9     		bls	.L75
 1083              	.LVL108:
 1084              	.L70:
 934:Generated_Source\PSoC4/LCD_Seg_1.c ****         }
 935:Generated_Source\PSoC4/LCD_Seg_1.c ****     }
 936:Generated_Source\PSoC4/LCD_Seg_1.c **** }
 1085              		.loc 1 936 0 is_stmt 1
 1086              		@ sp needed
 1087              	.LVL109:
 1088 0048 70BD     		pop	{r4, r5, r6, pc}
 1089              	.L78:
 1090 004a C046     		.align	2
 1091              	.L77:
 1092 004c 80000000 		.word	.LANCHOR3
 1093              		.cfi_endproc
 1094              	.LFE16:
 1095              		.size	LCD_Seg_1_Write7SegDigit_0, .-LCD_Seg_1_Write7SegDigit_0
 1096              		.global	__aeabi_uidivmod
 1097              		.section	.text.LCD_Seg_1_Write7SegNumber_0,"ax",%progbits
 1098              		.align	2
 1099              		.global	LCD_Seg_1_Write7SegNumber_0
 1100              		.code	16
 1101              		.thumb_func
 1102              		.type	LCD_Seg_1_Write7SegNumber_0, %function
 1103              	LCD_Seg_1_Write7SegNumber_0:
 1104              	.LFB17:
 937:Generated_Source\PSoC4/LCD_Seg_1.c **** 
 938:Generated_Source\PSoC4/LCD_Seg_1.c **** 
 939:Generated_Source\PSoC4/LCD_Seg_1.c **** /*******************************************************************************
 940:Generated_Source\PSoC4/LCD_Seg_1.c **** * Function Name: LCD_Seg_1_Write7SegNumber_0
 941:Generated_Source\PSoC4/LCD_Seg_1.c **** ********************************************************************************
 942:Generated_Source\PSoC4/LCD_Seg_1.c **** *
 943:Generated_Source\PSoC4/LCD_Seg_1.c **** * Summary:
 944:Generated_Source\PSoC4/LCD_Seg_1.c **** *  This function displays a 16-bit integer value on a 1- to 5-digit array of
 945:Generated_Source\PSoC4/LCD_Seg_1.c **** *  7-segment display elements. The customizer Display Helpers facility must be
 946:Generated_Source\PSoC4/LCD_Seg_1.c **** *  used to define the pixel set associated with the 7-segment display element/s.
 947:Generated_Source\PSoC4/LCD_Seg_1.c **** *  Multiple 7-segment display element groups can be defined in the frame buffer
 948:Generated_Source\PSoC4/LCD_Seg_1.c **** *  and are addressed through the suffix (n) in the function name. Sign 
 949:Generated_Source\PSoC4/LCD_Seg_1.c **** *  conversion, sign display, decimal points, and other custom features must be
 950:Generated_Source\PSoC4/LCD_Seg_1.c **** *  handled by application-specific user code. This function is only included if
 951:Generated_Source\PSoC4/LCD_Seg_1.c **** *  a 7-segment display element is defined in the component customizer.
 952:Generated_Source\PSoC4/LCD_Seg_1.c **** *
 953:Generated_Source\PSoC4/LCD_Seg_1.c **** * Parameters:
 954:Generated_Source\PSoC4/LCD_Seg_1.c **** *  value:    Unsigned integer value to be displayed.
 955:Generated_Source\PSoC4/LCD_Seg_1.c **** *  position: The position of the least significant digit as counted right to
 956:Generated_Source\PSoC4/LCD_Seg_1.c **** *            left starting at 0 on the right. If the defined display contains 
ARM GAS  C:\Users\iborg\AppData\Local\Temp\ccRvSWiO.s 			page 38


 957:Generated_Source\PSoC4/LCD_Seg_1.c **** *            fewer digits then the value requires for display for the most 
 958:Generated_Source\PSoC4/LCD_Seg_1.c **** *            significant digit/s will not be displayed.
 959:Generated_Source\PSoC4/LCD_Seg_1.c **** *  mode:     Sets the display mode.
 960:Generated_Source\PSoC4/LCD_Seg_1.c **** *    Define                         Description
 961:Generated_Source\PSoC4/LCD_Seg_1.c **** *     LCD_Seg_1_NO_LEADING_ZEROES          No leading zeroes.
 962:Generated_Source\PSoC4/LCD_Seg_1.c **** *     LCD_Seg_1_LEADING_ZEROES             Leading zeroes are displayed.
 963:Generated_Source\PSoC4/LCD_Seg_1.c **** *
 964:Generated_Source\PSoC4/LCD_Seg_1.c **** * Return: 
 965:Generated_Source\PSoC4/LCD_Seg_1.c **** *  None.
 966:Generated_Source\PSoC4/LCD_Seg_1.c **** *
 967:Generated_Source\PSoC4/LCD_Seg_1.c **** * Global variables:
 968:Generated_Source\PSoC4/LCD_Seg_1.c **** *  LCD_Seg_1_DIGIT_NUM_0 - holds the maximum digit number for the helper.
 969:Generated_Source\PSoC4/LCD_Seg_1.c **** *
 970:Generated_Source\PSoC4/LCD_Seg_1.c **** *******************************************************************************/
 971:Generated_Source\PSoC4/LCD_Seg_1.c **** void LCD_Seg_1_Write7SegNumber_0(uint32 value, uint32 position, uint32 mode)
 972:Generated_Source\PSoC4/LCD_Seg_1.c **** { 
 1105              		.loc 1 972 0
 1106              		.cfi_startproc
 1107              		@ args = 0, pretend = 0, frame = 0
 1108              		@ frame_needed = 0, uses_anonymous_args = 0
 1109              	.LVL110:
 1110 0000 70B5     		push	{r4, r5, r6, lr}
 1111              		.cfi_def_cfa_offset 16
 1112              		.cfi_offset 4, -16
 1113              		.cfi_offset 5, -12
 1114              		.cfi_offset 6, -8
 1115              		.cfi_offset 14, -4
 1116 0002 0500     		movs	r5, r0
 1117 0004 1600     		movs	r6, r2
 1118              	.LVL111:
 973:Generated_Source\PSoC4/LCD_Seg_1.c ****     uint32 i;
 974:Generated_Source\PSoC4/LCD_Seg_1.c ****     uint32 num;
 975:Generated_Source\PSoC4/LCD_Seg_1.c **** 
 976:Generated_Source\PSoC4/LCD_Seg_1.c ****     position = position % LCD_Seg_1_DIGIT_NUM_0;
 977:Generated_Source\PSoC4/LCD_Seg_1.c **** 
 978:Generated_Source\PSoC4/LCD_Seg_1.c ****     /* While current digit position in the range of display keep processing the output */
 979:Generated_Source\PSoC4/LCD_Seg_1.c ****     for (i = position; i < LCD_Seg_1_DIGIT_NUM_0; i++)
 1119              		.loc 1 979 0
 1120 0006 0024     		movs	r4, #0
 1121 0008 15E0     		b	.L80
 1122              	.LVL112:
 1123              	.L83:
 980:Generated_Source\PSoC4/LCD_Seg_1.c ****     {
 981:Generated_Source\PSoC4/LCD_Seg_1.c ****         num = value % 10u;
 1124              		.loc 1 981 0
 1125 000a 0A21     		movs	r1, #10
 1126 000c 2800     		movs	r0, r5
 1127              	.LVL113:
 1128 000e FFF7FEFF 		bl	__aeabi_uidivmod
 1129              	.LVL114:
 1130 0012 0800     		movs	r0, r1
 1131              	.LVL115:
 982:Generated_Source\PSoC4/LCD_Seg_1.c ****         if((0u == value) && (0u == mode))
 1132              		.loc 1 982 0
 1133 0014 2B00     		movs	r3, r5
 1134 0016 3343     		orrs	r3, r6
 1135 0018 04D1     		bne	.L81
ARM GAS  C:\Users\iborg\AppData\Local\Temp\ccRvSWiO.s 			page 39


 983:Generated_Source\PSoC4/LCD_Seg_1.c ****         {
 984:Generated_Source\PSoC4/LCD_Seg_1.c ****             /* In case of 'no leading zeros' each extra digit will be cleared */
 985:Generated_Source\PSoC4/LCD_Seg_1.c ****             LCD_Seg_1_Write7SegDigit_0(LCD_Seg_1_7SEG_BLANK_DIG, i);
 1136              		.loc 1 985 0
 1137 001a 2100     		movs	r1, r4
 1138 001c 1020     		movs	r0, #16
 1139              	.LVL116:
 1140 001e FFF7FEFF 		bl	LCD_Seg_1_Write7SegDigit_0
 1141              	.LVL117:
 1142 0022 02E0     		b	.L82
 1143              	.LVL118:
 1144              	.L81:
 986:Generated_Source\PSoC4/LCD_Seg_1.c ****         }
 987:Generated_Source\PSoC4/LCD_Seg_1.c ****         else
 988:Generated_Source\PSoC4/LCD_Seg_1.c ****         {
 989:Generated_Source\PSoC4/LCD_Seg_1.c ****             /* Display subsequent digit or '0' if 'no leading zeros' mode */
 990:Generated_Source\PSoC4/LCD_Seg_1.c ****             LCD_Seg_1_Write7SegDigit_0(num, i);
 1145              		.loc 1 990 0
 1146 0024 2100     		movs	r1, r4
 1147 0026 FFF7FEFF 		bl	LCD_Seg_1_Write7SegDigit_0
 1148              	.LVL119:
 1149              	.L82:
 991:Generated_Source\PSoC4/LCD_Seg_1.c ****         }
 992:Generated_Source\PSoC4/LCD_Seg_1.c ****         value = value / 10u;
 1150              		.loc 1 992 0 discriminator 2
 1151 002a 0A21     		movs	r1, #10
 1152 002c 2800     		movs	r0, r5
 1153 002e FFF7FEFF 		bl	__aeabi_uidiv
 1154              	.LVL120:
 1155 0032 0500     		movs	r5, r0
 1156              	.LVL121:
 979:Generated_Source\PSoC4/LCD_Seg_1.c ****     {
 1157              		.loc 1 979 0 discriminator 2
 1158 0034 0134     		adds	r4, r4, #1
 1159              	.LVL122:
 1160              	.L80:
 979:Generated_Source\PSoC4/LCD_Seg_1.c ****     {
 1161              		.loc 1 979 0 is_stmt 0 discriminator 1
 1162 0036 002C     		cmp	r4, #0
 1163 0038 E7D0     		beq	.L83
 993:Generated_Source\PSoC4/LCD_Seg_1.c ****     }
 994:Generated_Source\PSoC4/LCD_Seg_1.c **** }
 1164              		.loc 1 994 0 is_stmt 1
 1165              		@ sp needed
 1166              	.LVL123:
 1167              	.LVL124:
 1168 003a 70BD     		pop	{r4, r5, r6, pc}
 1169              		.cfi_endproc
 1170              	.LFE17:
 1171              		.size	LCD_Seg_1_Write7SegNumber_0, .-LCD_Seg_1_Write7SegNumber_0
 1172              		.global	LCD_Seg_1_initVar
 1173              		.section	.rodata
 1174              		.align	2
 1175              		.set	.LANCHOR1,. + 0
 1176              		.set	.LANCHOR3,. + 128
 1177              		.type	LCD_Seg_1_dividersLS, %object
 1178              		.size	LCD_Seg_1_dividersLS, 80
ARM GAS  C:\Users\iborg\AppData\Local\Temp\ccRvSWiO.s 			page 40


 1179              	LCD_Seg_1_dividersLS:
 1180 0000 C0000000 		.word	192
 1181 0004 AA000000 		.word	170
 1182 0008 95000000 		.word	149
 1183 000c 80000000 		.word	128
 1184 0010 6A000000 		.word	106
 1185 0014 55000000 		.word	85
 1186 0018 40000000 		.word	64
 1187 001c 2B000000 		.word	43
 1188 0020 15000000 		.word	21
 1189 0024 00000000 		.word	0
 1190 0028 05000000 		.word	5
 1191 002c 0A000000 		.word	10
 1192 0030 10000000 		.word	16
 1193 0034 15000000 		.word	21
 1194 0038 1A000000 		.word	26
 1195 003c 1F000000 		.word	31
 1196 0040 25000000 		.word	37
 1197 0044 2A000000 		.word	42
 1198 0048 2F000000 		.word	47
 1199 004c 34000000 		.word	52
 1200              		.type	LCD_Seg_1_dividersHS, %object
 1201              		.size	LCD_Seg_1_dividersHS, 80
 1202              	LCD_Seg_1_dividersHS:
 1203 0050 E02E0000 		.word	12000
 1204 0054 AB290000 		.word	10667
 1205 0058 75240000 		.word	9333
 1206 005c 401F0000 		.word	8000
 1207 0060 0B1A0000 		.word	6667
 1208 0064 D5140000 		.word	5333
 1209 0068 A00F0000 		.word	4000
 1210 006c 6B0A0000 		.word	2667
 1211 0070 35050000 		.word	1333
 1212 0074 00000000 		.word	0
 1213 0078 4D010000 		.word	333
 1214 007c 9A020000 		.word	666
 1215 0080 E8030000 		.word	1000
 1216 0084 35050000 		.word	1333
 1217 0088 82060000 		.word	1666
 1218 008c CF070000 		.word	1999
 1219 0090 1D090000 		.word	2333
 1220 0094 6A0A0000 		.word	2666
 1221 0098 B70B0000 		.word	2999
 1222 009c 040D0000 		.word	3332
 1223              		.type	LCD_Seg_1_disp0.4944, %object
 1224              		.size	LCD_Seg_1_disp0.4944, 28
 1225              	LCD_Seg_1_disp0.4944:
 1226 00a0 01020000 		.word	513
 1227 00a4 02020000 		.word	514
 1228 00a8 03020000 		.word	515
 1229 00ac 04020000 		.word	516
 1230 00b0 05020000 		.word	517
 1231 00b4 06020000 		.word	518
 1232 00b8 07020000 		.word	519
 1233              		.type	LCD_Seg_1_7SegDigits, %object
 1234              		.size	LCD_Seg_1_7SegDigits, 17
 1235              	LCD_Seg_1_7SegDigits:
ARM GAS  C:\Users\iborg\AppData\Local\Temp\ccRvSWiO.s 			page 41


 1236 00bc 3F       		.byte	63
 1237 00bd 06       		.byte	6
 1238 00be 5B       		.byte	91
 1239 00bf 4F       		.byte	79
 1240 00c0 66       		.byte	102
 1241 00c1 6D       		.byte	109
 1242 00c2 7D       		.byte	125
 1243 00c3 07       		.byte	7
 1244 00c4 7F       		.byte	127
 1245 00c5 6F       		.byte	111
 1246 00c6 77       		.byte	119
 1247 00c7 7C       		.byte	124
 1248 00c8 39       		.byte	57
 1249 00c9 5E       		.byte	94
 1250 00ca 79       		.byte	121
 1251 00cb 71       		.byte	113
 1252 00cc 00       		.byte	0
 1253              		.data
 1254              		.align	2
 1255              		.set	.LANCHOR0,. + 0
 1256              		.type	LCD_Seg_1_modeState, %object
 1257              		.size	LCD_Seg_1_modeState, 4
 1258              	LCD_Seg_1_modeState:
 1259 0000 01000000 		.word	1
 1260              		.type	LCD_Seg_1_contrastState, %object
 1261              		.size	LCD_Seg_1_contrastState, 4
 1262              	LCD_Seg_1_contrastState:
 1263 0004 64000000 		.word	100
 1264              		.bss
 1265              		.align	2
 1266              		.set	.LANCHOR2,. + 0
 1267              		.type	LCD_Seg_1_invertState, %object
 1268              		.size	LCD_Seg_1_invertState, 4
 1269              	LCD_Seg_1_invertState:
 1270 0000 00000000 		.space	4
 1271              		.type	LCD_Seg_1_initVar, %object
 1272              		.size	LCD_Seg_1_initVar, 4
 1273              	LCD_Seg_1_initVar:
 1274 0004 00000000 		.space	4
 1275              		.text
 1276              	.Letext0:
 1277              		.file 2 "Generated_Source\\PSoC4\\cytypes.h"